
dhrystone.riscv:     file format elf64-littleriscv


Disassembly of section .text:

0000000080001048 <Proc_7>:
    80001048:	0025051b          	addiw	a0,a0,2
    8000104c:	00b505bb          	addw	a1,a0,a1
    80001050:	00b62023          	sw	a1,0(a2)
    80001054:	00008067          	ret

0000000080001058 <Proc_8>:
    80001058:	0056079b          	addiw	a5,a2,5
    8000105c:	0c800713          	li	a4,200
    80001060:	02e78733          	mul	a4,a5,a4
    80001064:	00078813          	mv	a6,a5
    80001068:	00261613          	slli	a2,a2,0x2
    8000106c:	00279793          	slli	a5,a5,0x2
    80001070:	00f50533          	add	a0,a0,a5
    80001074:	00d52023          	sw	a3,0(a0)
    80001078:	00d52223          	sw	a3,4(a0)
    8000107c:	07052c23          	sw	a6,120(a0)
    80001080:	00c707b3          	add	a5,a4,a2
    80001084:	00f587b3          	add	a5,a1,a5
    80001088:	0107a683          	lw	a3,16(a5)
    8000108c:	0107aa23          	sw	a6,20(a5)
    80001090:	0107ac23          	sw	a6,24(a5)
    80001094:	0016869b          	addiw	a3,a3,1
    80001098:	00d7a823          	sw	a3,16(a5)
    8000109c:	00052783          	lw	a5,0(a0)
    800010a0:	00e585b3          	add	a1,a1,a4
    800010a4:	00c585b3          	add	a1,a1,a2
    800010a8:	00001637          	lui	a2,0x1
    800010ac:	00b605b3          	add	a1,a2,a1
    800010b0:	faf5aa23          	sw	a5,-76(a1)
    800010b4:	00500793          	li	a5,5
    800010b8:	00002717          	auipc	a4,0x2
    800010bc:	dcf72c23          	sw	a5,-552(a4) # 80002e90 <Int_Glob>
    800010c0:	00008067          	ret

00000000800010c4 <Func_1>:
    800010c4:	0ff57513          	andi	a0,a0,255
    800010c8:	0ff5f593          	andi	a1,a1,255
    800010cc:	00b50663          	beq	a0,a1,800010d8 <Func_1+0x14>
    800010d0:	00000513          	li	a0,0
    800010d4:	00008067          	ret
    800010d8:	00002797          	auipc	a5,0x2
    800010dc:	daa788a3          	sb	a0,-591(a5) # 80002e89 <Ch_1_Glob>
    800010e0:	00100513          	li	a0,1
    800010e4:	00008067          	ret

00000000800010e8 <Func_2>:
    800010e8:	fe010113          	addi	sp,sp,-32
    800010ec:	00813823          	sd	s0,16(sp)
    800010f0:	00913423          	sd	s1,8(sp)
    800010f4:	00113c23          	sd	ra,24(sp)
    800010f8:	00050413          	mv	s0,a0
    800010fc:	00058493          	mv	s1,a1
    80001100:	0034c583          	lbu	a1,3(s1)
    80001104:	00244503          	lbu	a0,2(s0)
    80001108:	fbdff0ef          	jal	ra,800010c4 <Func_1>
    8000110c:	0005051b          	sext.w	a0,a0
    80001110:	fe0518e3          	bnez	a0,80001100 <Func_2+0x18>
    80001114:	00048593          	mv	a1,s1
    80001118:	00040513          	mv	a0,s0
    8000111c:	4a5000ef          	jal	ra,80001dc0 <strcmp>
    80001120:	00000793          	li	a5,0
    80001124:	00a05a63          	blez	a0,80001138 <Func_2+0x50>
    80001128:	00a00793          	li	a5,10
    8000112c:	00002717          	auipc	a4,0x2
    80001130:	d6f72223          	sw	a5,-668(a4) # 80002e90 <Int_Glob>
    80001134:	00100793          	li	a5,1
    80001138:	01813083          	ld	ra,24(sp)
    8000113c:	01013403          	ld	s0,16(sp)
    80001140:	00813483          	ld	s1,8(sp)
    80001144:	00078513          	mv	a0,a5
    80001148:	02010113          	addi	sp,sp,32
    8000114c:	00008067          	ret

0000000080001150 <Func_3>:
    80001150:	ffe50513          	addi	a0,a0,-2
    80001154:	00153513          	seqz	a0,a0
    80001158:	00008067          	ret

000000008000115c <Proc_6>:
    8000115c:	fe010113          	addi	sp,sp,-32
    80001160:	00813823          	sd	s0,16(sp)
    80001164:	00913423          	sd	s1,8(sp)
    80001168:	00113c23          	sd	ra,24(sp)
    8000116c:	00050413          	mv	s0,a0
    80001170:	00058493          	mv	s1,a1
    80001174:	fddff0ef          	jal	ra,80001150 <Func_3>
    80001178:	02050e63          	beqz	a0,800011b4 <Proc_6+0x58>
    8000117c:	0084a023          	sw	s0,0(s1)
    80001180:	00100793          	li	a5,1
    80001184:	04f40063          	beq	s0,a5,800011c4 <Proc_6+0x68>
    80001188:	04040863          	beqz	s0,800011d8 <Proc_6+0x7c>
    8000118c:	00200713          	li	a4,2
    80001190:	06e40063          	beq	s0,a4,800011f0 <Proc_6+0x94>
    80001194:	00400793          	li	a5,4
    80001198:	00f41463          	bne	s0,a5,800011a0 <Proc_6+0x44>
    8000119c:	00e4a023          	sw	a4,0(s1)
    800011a0:	01813083          	ld	ra,24(sp)
    800011a4:	01013403          	ld	s0,16(sp)
    800011a8:	00813483          	ld	s1,8(sp)
    800011ac:	02010113          	addi	sp,sp,32
    800011b0:	00008067          	ret
    800011b4:	00300793          	li	a5,3
    800011b8:	00f4a023          	sw	a5,0(s1)
    800011bc:	00100793          	li	a5,1
    800011c0:	fcf414e3          	bne	s0,a5,80001188 <Proc_6+0x2c>
    800011c4:	00002797          	auipc	a5,0x2
    800011c8:	ccc78793          	addi	a5,a5,-820 # 80002e90 <Int_Glob>
    800011cc:	0007a703          	lw	a4,0(a5)
    800011d0:	06400793          	li	a5,100
    800011d4:	02e7da63          	ble	a4,a5,80001208 <Proc_6+0xac>
    800011d8:	01813083          	ld	ra,24(sp)
    800011dc:	01013403          	ld	s0,16(sp)
    800011e0:	0004a023          	sw	zero,0(s1)
    800011e4:	00813483          	ld	s1,8(sp)
    800011e8:	02010113          	addi	sp,sp,32
    800011ec:	00008067          	ret
    800011f0:	01813083          	ld	ra,24(sp)
    800011f4:	01013403          	ld	s0,16(sp)
    800011f8:	00f4a023          	sw	a5,0(s1)
    800011fc:	00813483          	ld	s1,8(sp)
    80001200:	02010113          	addi	sp,sp,32
    80001204:	00008067          	ret
    80001208:	01813083          	ld	ra,24(sp)
    8000120c:	01013403          	ld	s0,16(sp)
    80001210:	00300793          	li	a5,3
    80001214:	00f4a023          	sw	a5,0(s1)
    80001218:	00813483          	ld	s1,8(sp)
    8000121c:	02010113          	addi	sp,sp,32
    80001220:	00008067          	ret

0000000080001224 <debug_printf>:
    80001224:	fc010113          	addi	sp,sp,-64
    80001228:	00b13423          	sd	a1,8(sp)
    8000122c:	00c13823          	sd	a2,16(sp)
    80001230:	00d13c23          	sd	a3,24(sp)
    80001234:	02e13023          	sd	a4,32(sp)
    80001238:	02f13423          	sd	a5,40(sp)
    8000123c:	03013823          	sd	a6,48(sp)
    80001240:	03113c23          	sd	a7,56(sp)
    80001244:	04010113          	addi	sp,sp,64
    80001248:	00008067          	ret

000000008000124c <Proc_2>:
    8000124c:	00002717          	auipc	a4,0x2
    80001250:	c3d74703          	lbu	a4,-963(a4) # 80002e89 <Ch_1_Glob>
    80001254:	04100793          	li	a5,65
    80001258:	00f70463          	beq	a4,a5,80001260 <Proc_2+0x14>
    8000125c:	00008067          	ret
    80001260:	00052783          	lw	a5,0(a0)
    80001264:	00002717          	auipc	a4,0x2
    80001268:	c2c70713          	addi	a4,a4,-980 # 80002e90 <Int_Glob>
    8000126c:	00072703          	lw	a4,0(a4)
    80001270:	0097879b          	addiw	a5,a5,9
    80001274:	40e787bb          	subw	a5,a5,a4
    80001278:	00f52023          	sw	a5,0(a0)
    8000127c:	00008067          	ret

0000000080001280 <Proc_3>:
    80001280:	84818793          	addi	a5,gp,-1976 # 80002ea0 <Ptr_Glob>
    80001284:	0007b603          	ld	a2,0(a5)
    80001288:	00060863          	beqz	a2,80001298 <Proc_3+0x18>
    8000128c:	00063703          	ld	a4,0(a2) # 1000 <_tbss_end+0xfbc>
    80001290:	00e53023          	sd	a4,0(a0)
    80001294:	0007b603          	ld	a2,0(a5)
    80001298:	00002797          	auipc	a5,0x2
    8000129c:	bf878793          	addi	a5,a5,-1032 # 80002e90 <Int_Glob>
    800012a0:	0007a583          	lw	a1,0(a5)
    800012a4:	01060613          	addi	a2,a2,16
    800012a8:	00a00513          	li	a0,10
    800012ac:	d9dff06f          	j	80001048 <Proc_7>

00000000800012b0 <Proc_1>:
    800012b0:	fe010113          	addi	sp,sp,-32
    800012b4:	01213023          	sd	s2,0(sp)
    800012b8:	84818913          	addi	s2,gp,-1976 # 80002ea0 <Ptr_Glob>
    800012bc:	00093783          	ld	a5,0(s2)
    800012c0:	00813823          	sd	s0,16(sp)
    800012c4:	00053403          	ld	s0,0(a0)
    800012c8:	0007b703          	ld	a4,0(a5)
    800012cc:	00913423          	sd	s1,8(sp)
    800012d0:	0107b803          	ld	a6,16(a5)
    800012d4:	0187b583          	ld	a1,24(a5)
    800012d8:	0207b603          	ld	a2,32(a5)
    800012dc:	0287b683          	ld	a3,40(a5)
    800012e0:	00113c23          	sd	ra,24(sp)
    800012e4:	00050493          	mv	s1,a0
    800012e8:	0087b503          	ld	a0,8(a5)
    800012ec:	0307b783          	ld	a5,48(a5)
    800012f0:	00e43023          	sd	a4,0(s0)
    800012f4:	0004b703          	ld	a4,0(s1)
    800012f8:	01043823          	sd	a6,16(s0)
    800012fc:	00a43423          	sd	a0,8(s0)
    80001300:	02f43823          	sd	a5,48(s0)
    80001304:	00b43c23          	sd	a1,24(s0)
    80001308:	00500793          	li	a5,5
    8000130c:	02c43023          	sd	a2,32(s0)
    80001310:	02d43423          	sd	a3,40(s0)
    80001314:	00f4a823          	sw	a5,16(s1)
    80001318:	00f42823          	sw	a5,16(s0)
    8000131c:	00e43023          	sd	a4,0(s0)
    80001320:	00040513          	mv	a0,s0
    80001324:	f5dff0ef          	jal	ra,80001280 <Proc_3>
    80001328:	00842783          	lw	a5,8(s0)
    8000132c:	04078c63          	beqz	a5,80001384 <Proc_1+0xd4>
    80001330:	0004b783          	ld	a5,0(s1)
    80001334:	01813083          	ld	ra,24(sp)
    80001338:	01013403          	ld	s0,16(sp)
    8000133c:	0007b883          	ld	a7,0(a5)
    80001340:	0087b803          	ld	a6,8(a5)
    80001344:	0107b583          	ld	a1,16(a5)
    80001348:	0187b603          	ld	a2,24(a5)
    8000134c:	0207b683          	ld	a3,32(a5)
    80001350:	0287b703          	ld	a4,40(a5)
    80001354:	0307b783          	ld	a5,48(a5)
    80001358:	0114b023          	sd	a7,0(s1)
    8000135c:	0104b423          	sd	a6,8(s1)
    80001360:	00b4b823          	sd	a1,16(s1)
    80001364:	00c4bc23          	sd	a2,24(s1)
    80001368:	02d4b023          	sd	a3,32(s1)
    8000136c:	02e4b423          	sd	a4,40(s1)
    80001370:	02f4b823          	sd	a5,48(s1)
    80001374:	00013903          	ld	s2,0(sp)
    80001378:	00813483          	ld	s1,8(sp)
    8000137c:	02010113          	addi	sp,sp,32
    80001380:	00008067          	ret
    80001384:	00c4a503          	lw	a0,12(s1)
    80001388:	00600793          	li	a5,6
    8000138c:	00c40593          	addi	a1,s0,12
    80001390:	00f42823          	sw	a5,16(s0)
    80001394:	dc9ff0ef          	jal	ra,8000115c <Proc_6>
    80001398:	00093783          	ld	a5,0(s2)
    8000139c:	01042503          	lw	a0,16(s0)
    800013a0:	01040613          	addi	a2,s0,16
    800013a4:	0007b783          	ld	a5,0(a5)
    800013a8:	01813083          	ld	ra,24(sp)
    800013ac:	00813483          	ld	s1,8(sp)
    800013b0:	00f43023          	sd	a5,0(s0)
    800013b4:	01013403          	ld	s0,16(sp)
    800013b8:	00013903          	ld	s2,0(sp)
    800013bc:	00a00593          	li	a1,10
    800013c0:	02010113          	addi	sp,sp,32
    800013c4:	c85ff06f          	j	80001048 <Proc_7>

00000000800013c8 <Proc_4>:
    800013c8:	00002717          	auipc	a4,0x2
    800013cc:	ac470713          	addi	a4,a4,-1340 # 80002e8c <Bool_Glob>
    800013d0:	00072683          	lw	a3,0(a4)
    800013d4:	00002797          	auipc	a5,0x2
    800013d8:	ab57c783          	lbu	a5,-1355(a5) # 80002e89 <Ch_1_Glob>
    800013dc:	fbf78793          	addi	a5,a5,-65
    800013e0:	0017b793          	seqz	a5,a5
    800013e4:	00d7e7b3          	or	a5,a5,a3
    800013e8:	00f72023          	sw	a5,0(a4)
    800013ec:	04200793          	li	a5,66
    800013f0:	00002717          	auipc	a4,0x2
    800013f4:	a8f70c23          	sb	a5,-1384(a4) # 80002e88 <Ch_2_Glob>
    800013f8:	00008067          	ret

00000000800013fc <Proc_5>:
    800013fc:	04100793          	li	a5,65
    80001400:	00002717          	auipc	a4,0x2
    80001404:	a8f704a3          	sb	a5,-1399(a4) # 80002e89 <Ch_1_Glob>
    80001408:	00002797          	auipc	a5,0x2
    8000140c:	a807a223          	sw	zero,-1404(a5) # 80002e8c <Bool_Glob>
    80001410:	00008067          	ret

0000000080001414 <vprintfmt>:
    80001414:	ea010113          	addi	sp,sp,-352
    80001418:	14813823          	sd	s0,336(sp)
    8000141c:	14913423          	sd	s1,328(sp)
    80001420:	15213023          	sd	s2,320(sp)
    80001424:	13413823          	sd	s4,304(sp)
    80001428:	13513423          	sd	s5,296(sp)
    8000142c:	13613023          	sd	s6,288(sp)
    80001430:	14113c23          	sd	ra,344(sp)
    80001434:	13313c23          	sd	s3,312(sp)
    80001438:	11713c23          	sd	s7,280(sp)
    8000143c:	11813823          	sd	s8,272(sp)
    80001440:	11913423          	sd	s9,264(sp)
    80001444:	00050913          	mv	s2,a0
    80001448:	00058493          	mv	s1,a1
    8000144c:	00060413          	mv	s0,a2
    80001450:	00068b13          	mv	s6,a3
    80001454:	02500a13          	li	s4,37
    80001458:	00002a97          	auipc	s5,0x2
    8000145c:	8a8a8a93          	addi	s5,s5,-1880 # 80002d00 <main+0xe70>
    80001460:	0140006f          	j	80001474 <vprintfmt+0x60>
    80001464:	06050063          	beqz	a0,800014c4 <vprintfmt+0xb0>
    80001468:	00048593          	mv	a1,s1
    8000146c:	00140413          	addi	s0,s0,1
    80001470:	000900e7          	jalr	s2
    80001474:	00044503          	lbu	a0,0(s0)
    80001478:	ff4516e3          	bne	a0,s4,80001464 <vprintfmt+0x50>
    8000147c:	00144683          	lbu	a3,1(s0)
    80001480:	00140c93          	addi	s9,s0,1
    80001484:	000c8713          	mv	a4,s9
    80001488:	02000b93          	li	s7,32
    8000148c:	fff00993          	li	s3,-1
    80001490:	fff00c13          	li	s8,-1
    80001494:	00000593          	li	a1,0
    80001498:	05500613          	li	a2,85
    8000149c:	00900513          	li	a0,9
    800014a0:	fdd6879b          	addiw	a5,a3,-35
    800014a4:	0ff7f793          	andi	a5,a5,255
    800014a8:	00170413          	addi	s0,a4,1
    800014ac:	2af66863          	bltu	a2,a5,8000175c <vprintfmt+0x348>
    800014b0:	00279793          	slli	a5,a5,0x2
    800014b4:	015787b3          	add	a5,a5,s5
    800014b8:	0007a783          	lw	a5,0(a5)
    800014bc:	015787b3          	add	a5,a5,s5
    800014c0:	00078067          	jr	a5
    800014c4:	15813083          	ld	ra,344(sp)
    800014c8:	15013403          	ld	s0,336(sp)
    800014cc:	14813483          	ld	s1,328(sp)
    800014d0:	14013903          	ld	s2,320(sp)
    800014d4:	13813983          	ld	s3,312(sp)
    800014d8:	13013a03          	ld	s4,304(sp)
    800014dc:	12813a83          	ld	s5,296(sp)
    800014e0:	12013b03          	ld	s6,288(sp)
    800014e4:	11813b83          	ld	s7,280(sp)
    800014e8:	11013c03          	ld	s8,272(sp)
    800014ec:	10813c83          	ld	s9,264(sp)
    800014f0:	16010113          	addi	sp,sp,352
    800014f4:	00008067          	ret
    800014f8:	00800713          	li	a4,8
    800014fc:	00100793          	li	a5,1
    80001500:	008b0693          	addi	a3,s6,8
    80001504:	12b7d863          	ble	a1,a5,80001634 <vprintfmt+0x220>
    80001508:	000b3783          	ld	a5,0(s6)
    8000150c:	00068b13          	mv	s6,a3
    80001510:	02e7f6b3          	remu	a3,a5,a4
    80001514:	000b8b9b          	sext.w	s7,s7
    80001518:	00410613          	addi	a2,sp,4
    8000151c:	00100993          	li	s3,1
    80001520:	00d12023          	sw	a3,0(sp)
    80001524:	00e7f663          	bleu	a4,a5,80001530 <vprintfmt+0x11c>
    80001528:	2480006f          	j	80001770 <vprintfmt+0x35c>
    8000152c:	000c8993          	mv	s3,s9
    80001530:	02e7d7b3          	divu	a5,a5,a4
    80001534:	00460613          	addi	a2,a2,4
    80001538:	00198c9b          	addiw	s9,s3,1
    8000153c:	02e7f6b3          	remu	a3,a5,a4
    80001540:	fed62e23          	sw	a3,-4(a2)
    80001544:	fee7f4e3          	bleu	a4,a5,8000152c <vprintfmt+0x118>
    80001548:	018cde63          	ble	s8,s9,80001564 <vprintfmt+0x150>
    8000154c:	000c0c1b          	sext.w	s8,s8
    80001550:	fffc0c1b          	addiw	s8,s8,-1
    80001554:	00048593          	mv	a1,s1
    80001558:	000b8513          	mv	a0,s7
    8000155c:	000900e7          	jalr	s2
    80001560:	ff8cc8e3          	blt	s9,s8,80001550 <vprintfmt+0x13c>
    80001564:	00299793          	slli	a5,s3,0x2
    80001568:	10010713          	addi	a4,sp,256
    8000156c:	00f707b3          	add	a5,a4,a5
    80001570:	f007a683          	lw	a3,-256(a5)
    80001574:	fff98b9b          	addiw	s7,s3,-1
    80001578:	002b9b93          	slli	s7,s7,0x2
    8000157c:	01710bb3          	add	s7,sp,s7
    80001580:	00900c13          	li	s8,9
    80001584:	0100006f          	j	80001594 <vprintfmt+0x180>
    80001588:	000ba683          	lw	a3,0(s7)
    8000158c:	fff98993          	addi	s3,s3,-1
    80001590:	ffcb8b93          	addi	s7,s7,-4
    80001594:	03000513          	li	a0,48
    80001598:	00dc7463          	bleu	a3,s8,800015a0 <vprintfmt+0x18c>
    8000159c:	05700513          	li	a0,87
    800015a0:	00048593          	mv	a1,s1
    800015a4:	00d5053b          	addw	a0,a0,a3
    800015a8:	000900e7          	jalr	s2
    800015ac:	0009879b          	sext.w	a5,s3
    800015b0:	fcf04ce3          	bgtz	a5,80001588 <vprintfmt+0x174>
    800015b4:	ec1ff06f          	j	80001474 <vprintfmt+0x60>
    800015b8:	03000513          	li	a0,48
    800015bc:	00048593          	mv	a1,s1
    800015c0:	000900e7          	jalr	s2
    800015c4:	00048593          	mv	a1,s1
    800015c8:	07800513          	li	a0,120
    800015cc:	000900e7          	jalr	s2
    800015d0:	008b0693          	addi	a3,s6,8
    800015d4:	01000713          	li	a4,16
    800015d8:	f31ff06f          	j	80001508 <vprintfmt+0xf4>
    800015dc:	000b3c83          	ld	s9,0(s6)
    800015e0:	008b0b13          	addi	s6,s6,8
    800015e4:	200c8c63          	beqz	s9,800017fc <vprintfmt+0x3e8>
    800015e8:	1b805463          	blez	s8,80001790 <vprintfmt+0x37c>
    800015ec:	02d00793          	li	a5,45
    800015f0:	1efb8e63          	beq	s7,a5,800017ec <vprintfmt+0x3d8>
    800015f4:	000c059b          	sext.w	a1,s8
    800015f8:	20098e63          	beqz	s3,80001814 <vprintfmt+0x400>
    800015fc:	000cc783          	lbu	a5,0(s9)
    80001600:	20078a63          	beqz	a5,80001814 <vprintfmt+0x400>
    80001604:	001c8793          	addi	a5,s9,1
    80001608:	013c8633          	add	a2,s9,s3
    8000160c:	24f60463          	beq	a2,a5,80001854 <vprintfmt+0x440>
    80001610:	00178713          	addi	a4,a5,1
    80001614:	fff74683          	lbu	a3,-1(a4)
    80001618:	16068663          	beqz	a3,80001784 <vprintfmt+0x370>
    8000161c:	00070793          	mv	a5,a4
    80001620:	fedff06f          	j	8000160c <vprintfmt+0x1f8>
    80001624:	00100793          	li	a5,1
    80001628:	00a00713          	li	a4,10
    8000162c:	008b0693          	addi	a3,s6,8
    80001630:	ecb7cce3          	blt	a5,a1,80001508 <vprintfmt+0xf4>
    80001634:	ec059ae3          	bnez	a1,80001508 <vprintfmt+0xf4>
    80001638:	000b6783          	lwu	a5,0(s6)
    8000163c:	00068b13          	mv	s6,a3
    80001640:	ed1ff06f          	j	80001510 <vprintfmt+0xfc>
    80001644:	00174683          	lbu	a3,1(a4)
    80001648:	00040713          	mv	a4,s0
    8000164c:	e55ff06f          	j	800014a0 <vprintfmt+0x8c>
    80001650:	00048593          	mv	a1,s1
    80001654:	02500513          	li	a0,37
    80001658:	000900e7          	jalr	s2
    8000165c:	e19ff06f          	j	80001474 <vprintfmt+0x60>
    80001660:	01000713          	li	a4,16
    80001664:	e99ff06f          	j	800014fc <vprintfmt+0xe8>
    80001668:	000b2983          	lw	s3,0(s6)
    8000166c:	00174683          	lbu	a3,1(a4)
    80001670:	008b0b13          	addi	s6,s6,8
    80001674:	00040713          	mv	a4,s0
    80001678:	e20c54e3          	bgez	s8,800014a0 <vprintfmt+0x8c>
    8000167c:	00098c13          	mv	s8,s3
    80001680:	fff00993          	li	s3,-1
    80001684:	e1dff06f          	j	800014a0 <vprintfmt+0x8c>
    80001688:	00174683          	lbu	a3,1(a4)
    8000168c:	02d00b93          	li	s7,45
    80001690:	00040713          	mv	a4,s0
    80001694:	e0dff06f          	j	800014a0 <vprintfmt+0x8c>
    80001698:	fffc4793          	not	a5,s8
    8000169c:	43f7d793          	srai	a5,a5,0x3f
    800016a0:	00fc7c33          	and	s8,s8,a5
    800016a4:	00174683          	lbu	a3,1(a4)
    800016a8:	000c0c1b          	sext.w	s8,s8
    800016ac:	00040713          	mv	a4,s0
    800016b0:	df1ff06f          	j	800014a0 <vprintfmt+0x8c>
    800016b4:	00174683          	lbu	a3,1(a4)
    800016b8:	03000b93          	li	s7,48
    800016bc:	00040713          	mv	a4,s0
    800016c0:	de1ff06f          	j	800014a0 <vprintfmt+0x8c>
    800016c4:	fd06899b          	addiw	s3,a3,-48
    800016c8:	00174683          	lbu	a3,1(a4)
    800016cc:	00040713          	mv	a4,s0
    800016d0:	fd06879b          	addiw	a5,a3,-48
    800016d4:	0006881b          	sext.w	a6,a3
    800016d8:	faf560e3          	bltu	a0,a5,80001678 <vprintfmt+0x264>
    800016dc:	00170713          	addi	a4,a4,1
    800016e0:	0029979b          	slliw	a5,s3,0x2
    800016e4:	00074683          	lbu	a3,0(a4)
    800016e8:	013789bb          	addw	s3,a5,s3
    800016ec:	0019999b          	slliw	s3,s3,0x1
    800016f0:	010989bb          	addw	s3,s3,a6
    800016f4:	fd06879b          	addiw	a5,a3,-48
    800016f8:	fd09899b          	addiw	s3,s3,-48
    800016fc:	0006881b          	sext.w	a6,a3
    80001700:	fcf57ee3          	bleu	a5,a0,800016dc <vprintfmt+0x2c8>
    80001704:	f75ff06f          	j	80001678 <vprintfmt+0x264>
    80001708:	000b2503          	lw	a0,0(s6)
    8000170c:	00048593          	mv	a1,s1
    80001710:	008b0b13          	addi	s6,s6,8
    80001714:	000900e7          	jalr	s2
    80001718:	d5dff06f          	j	80001474 <vprintfmt+0x60>
    8000171c:	00100793          	li	a5,1
    80001720:	008b0c93          	addi	s9,s6,8
    80001724:	0ab7de63          	ble	a1,a5,800017e0 <vprintfmt+0x3cc>
    80001728:	000b3983          	ld	s3,0(s6)
    8000172c:	1009d263          	bgez	s3,80001830 <vprintfmt+0x41c>
    80001730:	00048593          	mv	a1,s1
    80001734:	02d00513          	li	a0,45
    80001738:	000900e7          	jalr	s2
    8000173c:	000c8b13          	mv	s6,s9
    80001740:	413007b3          	neg	a5,s3
    80001744:	00a00713          	li	a4,10
    80001748:	dc9ff06f          	j	80001510 <vprintfmt+0xfc>
    8000174c:	00174683          	lbu	a3,1(a4)
    80001750:	0015859b          	addiw	a1,a1,1
    80001754:	00040713          	mv	a4,s0
    80001758:	d49ff06f          	j	800014a0 <vprintfmt+0x8c>
    8000175c:	00048593          	mv	a1,s1
    80001760:	02500513          	li	a0,37
    80001764:	000900e7          	jalr	s2
    80001768:	000c8413          	mv	s0,s9
    8000176c:	d09ff06f          	j	80001474 <vprintfmt+0x60>
    80001770:	00100793          	li	a5,1
    80001774:	00000993          	li	s3,0
    80001778:	00100c93          	li	s9,1
    8000177c:	dd87c8e3          	blt	a5,s8,8000154c <vprintfmt+0x138>
    80001780:	df5ff06f          	j	80001574 <vprintfmt+0x160>
    80001784:	41978c33          	sub	s8,a5,s9
    80001788:	41858c3b          	subw	s8,a1,s8
    8000178c:	09804463          	bgtz	s8,80001814 <vprintfmt+0x400>
    80001790:	000cc503          	lbu	a0,0(s9)
    80001794:	ce0500e3          	beqz	a0,80001474 <vprintfmt+0x60>
    80001798:	fff00b93          	li	s7,-1
    8000179c:	0209dc63          	bgez	s3,800017d4 <vprintfmt+0x3c0>
    800017a0:	00048593          	mv	a1,s1
    800017a4:	001c8c93          	addi	s9,s9,1
    800017a8:	000900e7          	jalr	s2
    800017ac:	000cc503          	lbu	a0,0(s9)
    800017b0:	fffc0c1b          	addiw	s8,s8,-1
    800017b4:	fe0514e3          	bnez	a0,8000179c <vprintfmt+0x388>
    800017b8:	cb805ee3          	blez	s8,80001474 <vprintfmt+0x60>
    800017bc:	fffc0c1b          	addiw	s8,s8,-1
    800017c0:	00048593          	mv	a1,s1
    800017c4:	02000513          	li	a0,32
    800017c8:	000900e7          	jalr	s2
    800017cc:	fe0c18e3          	bnez	s8,800017bc <vprintfmt+0x3a8>
    800017d0:	ca5ff06f          	j	80001474 <vprintfmt+0x60>
    800017d4:	fff9899b          	addiw	s3,s3,-1
    800017d8:	fd7994e3          	bne	s3,s7,800017a0 <vprintfmt+0x38c>
    800017dc:	fddff06f          	j	800017b8 <vprintfmt+0x3a4>
    800017e0:	f40594e3          	bnez	a1,80001728 <vprintfmt+0x314>
    800017e4:	000b2983          	lw	s3,0(s6)
    800017e8:	f45ff06f          	j	8000172c <vprintfmt+0x318>
    800017ec:	000cc503          	lbu	a0,0(s9)
    800017f0:	fc0506e3          	beqz	a0,800017bc <vprintfmt+0x3a8>
    800017f4:	fff00b93          	li	s7,-1
    800017f8:	fa5ff06f          	j	8000179c <vprintfmt+0x388>
    800017fc:	05805263          	blez	s8,80001840 <vprintfmt+0x42c>
    80001800:	02d00793          	li	a5,45
    80001804:	02fb8e63          	beq	s7,a5,80001840 <vprintfmt+0x42c>
    80001808:	00001c97          	auipc	s9,0x1
    8000180c:	490c8c93          	addi	s9,s9,1168 # 80002c98 <main+0xe08>
    80001810:	de5ff06f          	j	800015f4 <vprintfmt+0x1e0>
    80001814:	000b8b9b          	sext.w	s7,s7
    80001818:	fffc0c1b          	addiw	s8,s8,-1
    8000181c:	00048593          	mv	a1,s1
    80001820:	000b8513          	mv	a0,s7
    80001824:	000900e7          	jalr	s2
    80001828:	fe0c18e3          	bnez	s8,80001818 <vprintfmt+0x404>
    8000182c:	f65ff06f          	j	80001790 <vprintfmt+0x37c>
    80001830:	00098793          	mv	a5,s3
    80001834:	000c8b13          	mv	s6,s9
    80001838:	00a00713          	li	a4,10
    8000183c:	cd5ff06f          	j	80001510 <vprintfmt+0xfc>
    80001840:	00001c97          	auipc	s9,0x1
    80001844:	458c8c93          	addi	s9,s9,1112 # 80002c98 <main+0xe08>
    80001848:	02800513          	li	a0,40
    8000184c:	fff00b93          	li	s7,-1
    80001850:	f4dff06f          	j	8000179c <vprintfmt+0x388>
    80001854:	41960c33          	sub	s8,a2,s9
    80001858:	41858c3b          	subw	s8,a1,s8
    8000185c:	fb804ce3          	bgtz	s8,80001814 <vprintfmt+0x400>
    80001860:	f31ff06f          	j	80001790 <vprintfmt+0x37c>

0000000080001864 <sprintf_putch.2924>:
    80001864:	0005b783          	ld	a5,0(a1)
    80001868:	00a78023          	sb	a0,0(a5)
    8000186c:	0005b783          	ld	a5,0(a1)
    80001870:	00178793          	addi	a5,a5,1
    80001874:	00f5b023          	sd	a5,0(a1)
    80001878:	00008067          	ret

000000008000187c <putchar>:
    8000187c:	04022803          	lw	a6,64(tp) # 40 <buflen.2810>
    80001880:	00020793          	mv	a5,tp
    80001884:	010787b3          	add	a5,a5,a6
    80001888:	f8010113          	addi	sp,sp,-128
    8000188c:	0018069b          	addiw	a3,a6,1
    80001890:	04d22023          	sw	a3,64(tp) # 40 <buflen.2810>
    80001894:	00a78023          	sb	a0,0(a5)
    80001898:	03f10713          	addi	a4,sp,63
    8000189c:	00a00793          	li	a5,10
    800018a0:	fc077713          	andi	a4,a4,-64
    800018a4:	00f50c63          	beq	a0,a5,800018bc <putchar+0x40>
    800018a8:	04000793          	li	a5,64
    800018ac:	00f68863          	beq	a3,a5,800018bc <putchar+0x40>
    800018b0:	00000513          	li	a0,0
    800018b4:	08010113          	addi	sp,sp,128
    800018b8:	00008067          	ret
    800018bc:	04000793          	li	a5,64
    800018c0:	00f73023          	sd	a5,0(a4)
    800018c4:	00100793          	li	a5,1
    800018c8:	00f73423          	sd	a5,8(a4)
    800018cc:	00020613          	mv	a2,tp
    800018d0:	00c73823          	sd	a2,16(a4)
    800018d4:	00d73c23          	sd	a3,24(a4)
    800018d8:	0ff0000f          	fence
    800018dc:	fffff797          	auipc	a5,0xfffff
    800018e0:	72e7b223          	sd	a4,1828(a5) # 80001000 <tohost>
    800018e4:	fffff697          	auipc	a3,0xfffff
    800018e8:	75c68693          	addi	a3,a3,1884 # 80001040 <fromhost>
    800018ec:	0006b783          	ld	a5,0(a3)
    800018f0:	fe078ee3          	beqz	a5,800018ec <putchar+0x70>
    800018f4:	fffff797          	auipc	a5,0xfffff
    800018f8:	7407b623          	sd	zero,1868(a5) # 80001040 <fromhost>
    800018fc:	0ff0000f          	fence
    80001900:	04022023          	sw	zero,64(tp) # 40 <buflen.2810>
    80001904:	00073783          	ld	a5,0(a4)
    80001908:	00000513          	li	a0,0
    8000190c:	08010113          	addi	sp,sp,128
    80001910:	00008067          	ret

0000000080001914 <setStats>:
    80001914:	00050c63          	beqz	a0,8000192c <setStats+0x18>
    80001918:	40100793          	li	a5,1025
    8000191c:	32379073          	csrw	mhpmevent3,a5
    80001920:	000027b7          	lui	a5,0x2
    80001924:	0017879b          	addiw	a5,a5,1
    80001928:	32479073          	csrw	mhpmevent4,a5
    8000192c:	b00027f3          	csrr	a5,mcycle
    80001930:	00004717          	auipc	a4,0x4
    80001934:	d5070713          	addi	a4,a4,-688 # 80005680 <counters>
    80001938:	00051e63          	bnez	a0,80001954 <setStats+0x40>
    8000193c:	00073683          	ld	a3,0(a4)
    80001940:	00001617          	auipc	a2,0x1
    80001944:	36060613          	addi	a2,a2,864 # 80002ca0 <main+0xe10>
    80001948:	00004597          	auipc	a1,0x4
    8000194c:	d4c5bc23          	sd	a2,-680(a1) # 800056a0 <counter_names>
    80001950:	40d787b3          	sub	a5,a5,a3
    80001954:	00004697          	auipc	a3,0x4
    80001958:	d2f6b623          	sd	a5,-724(a3) # 80005680 <counters>
    8000195c:	b02027f3          	csrr	a5,minstret
    80001960:	00051e63          	bnez	a0,8000197c <setStats+0x68>
    80001964:	00873683          	ld	a3,8(a4)
    80001968:	00001617          	auipc	a2,0x1
    8000196c:	34060613          	addi	a2,a2,832 # 80002ca8 <main+0xe18>
    80001970:	00004597          	auipc	a1,0x4
    80001974:	d2c5bc23          	sd	a2,-712(a1) # 800056a8 <counter_names+0x8>
    80001978:	40d787b3          	sub	a5,a5,a3
    8000197c:	00004697          	auipc	a3,0x4
    80001980:	d0f6b623          	sd	a5,-756(a3) # 80005688 <counters+0x8>
    80001984:	b03027f3          	csrr	a5,mhpmcounter3
    80001988:	00051e63          	bnez	a0,800019a4 <setStats+0x90>
    8000198c:	01073683          	ld	a3,16(a4)
    80001990:	00001617          	auipc	a2,0x1
    80001994:	32860613          	addi	a2,a2,808 # 80002cb8 <main+0xe28>
    80001998:	00004597          	auipc	a1,0x4
    8000199c:	d0c5bc23          	sd	a2,-744(a1) # 800056b0 <counter_names+0x10>
    800019a0:	40d787b3          	sub	a5,a5,a3
    800019a4:	00004697          	auipc	a3,0x4
    800019a8:	cef6b623          	sd	a5,-788(a3) # 80005690 <counters+0x10>
    800019ac:	b04027f3          	csrr	a5,mhpmcounter4
    800019b0:	00051e63          	bnez	a0,800019cc <setStats+0xb8>
    800019b4:	01873703          	ld	a4,24(a4)
    800019b8:	00001697          	auipc	a3,0x1
    800019bc:	31068693          	addi	a3,a3,784 # 80002cc8 <main+0xe38>
    800019c0:	00004617          	auipc	a2,0x4
    800019c4:	ced63c23          	sd	a3,-776(a2) # 800056b8 <counter_names+0x18>
    800019c8:	40e787b3          	sub	a5,a5,a4
    800019cc:	00004717          	auipc	a4,0x4
    800019d0:	ccf73623          	sd	a5,-820(a4) # 80005698 <counters+0x18>
    800019d4:	00008067          	ret

00000000800019d8 <tohost_exit>:
    800019d8:	00151793          	slli	a5,a0,0x1
    800019dc:	0017e793          	ori	a5,a5,1
    800019e0:	fffff717          	auipc	a4,0xfffff
    800019e4:	62f73023          	sd	a5,1568(a4) # 80001000 <tohost>
    800019e8:	0000006f          	j	800019e8 <tohost_exit+0x10>

00000000800019ec <handle_trap>:
    800019ec:	000017b7          	lui	a5,0x1
    800019f0:	a7378793          	addi	a5,a5,-1421 # a73 <_tbss_end+0xa2f>
    800019f4:	fffff717          	auipc	a4,0xfffff
    800019f8:	60f73623          	sd	a5,1548(a4) # 80001000 <tohost>
    800019fc:	0000006f          	j	800019fc <handle_trap+0x10>

0000000080001a00 <exit>:
    80001a00:	ff010113          	addi	sp,sp,-16
    80001a04:	00113423          	sd	ra,8(sp)
    80001a08:	fd1ff0ef          	jal	ra,800019d8 <tohost_exit>

0000000080001a0c <abort>:
    80001a0c:	10d00793          	li	a5,269
    80001a10:	fffff717          	auipc	a4,0xfffff
    80001a14:	5ef73823          	sd	a5,1520(a4) # 80001000 <tohost>
    80001a18:	0000006f          	j	80001a18 <abort+0xc>

0000000080001a1c <printstr>:
    80001a1c:	00054783          	lbu	a5,0(a0)
    80001a20:	f8010113          	addi	sp,sp,-128
    80001a24:	03f10713          	addi	a4,sp,63
    80001a28:	00050693          	mv	a3,a0
    80001a2c:	fc077713          	andi	a4,a4,-64
    80001a30:	06078263          	beqz	a5,80001a94 <printstr+0x78>
    80001a34:	00050613          	mv	a2,a0
    80001a38:	00150513          	addi	a0,a0,1
    80001a3c:	00054783          	lbu	a5,0(a0)
    80001a40:	fe079ce3          	bnez	a5,80001a38 <printstr+0x1c>
    80001a44:	40c50533          	sub	a0,a0,a2
    80001a48:	04000793          	li	a5,64
    80001a4c:	00f73023          	sd	a5,0(a4)
    80001a50:	00100793          	li	a5,1
    80001a54:	00f73423          	sd	a5,8(a4)
    80001a58:	00d73823          	sd	a3,16(a4)
    80001a5c:	00a73c23          	sd	a0,24(a4)
    80001a60:	0ff0000f          	fence
    80001a64:	fffff797          	auipc	a5,0xfffff
    80001a68:	58e7be23          	sd	a4,1436(a5) # 80001000 <tohost>
    80001a6c:	fffff697          	auipc	a3,0xfffff
    80001a70:	5d468693          	addi	a3,a3,1492 # 80001040 <fromhost>
    80001a74:	0006b783          	ld	a5,0(a3)
    80001a78:	fe078ee3          	beqz	a5,80001a74 <printstr+0x58>
    80001a7c:	fffff797          	auipc	a5,0xfffff
    80001a80:	5c07b223          	sd	zero,1476(a5) # 80001040 <fromhost>
    80001a84:	0ff0000f          	fence
    80001a88:	00073783          	ld	a5,0(a4)
    80001a8c:	08010113          	addi	sp,sp,128
    80001a90:	00008067          	ret
    80001a94:	00000513          	li	a0,0
    80001a98:	fb1ff06f          	j	80001a48 <printstr+0x2c>

0000000080001a9c <thread_entry>:
    80001a9c:	00050463          	beqz	a0,80001aa4 <thread_entry+0x8>
    80001aa0:	0000006f          	j	80001aa0 <thread_entry+0x4>
    80001aa4:	00008067          	ret

0000000080001aa8 <printhex>:
    80001aa8:	fd010113          	addi	sp,sp,-48
    80001aac:	02113423          	sd	ra,40(sp)
    80001ab0:	01710713          	addi	a4,sp,23
    80001ab4:	00710813          	addi	a6,sp,7
    80001ab8:	00900593          	li	a1,9
    80001abc:	00f57793          	andi	a5,a0,15
    80001ac0:	03000613          	li	a2,48
    80001ac4:	0ff7f693          	andi	a3,a5,255
    80001ac8:	00f5f463          	bleu	a5,a1,80001ad0 <printhex+0x28>
    80001acc:	05700613          	li	a2,87
    80001ad0:	00c687bb          	addw	a5,a3,a2
    80001ad4:	00f70023          	sb	a5,0(a4)
    80001ad8:	fff70713          	addi	a4,a4,-1
    80001adc:	00455513          	srli	a0,a0,0x4
    80001ae0:	fce81ee3          	bne	a6,a4,80001abc <printhex+0x14>
    80001ae4:	00810513          	addi	a0,sp,8
    80001ae8:	00010c23          	sb	zero,24(sp)
    80001aec:	f31ff0ef          	jal	ra,80001a1c <printstr>
    80001af0:	02813083          	ld	ra,40(sp)
    80001af4:	03010113          	addi	sp,sp,48
    80001af8:	00008067          	ret

0000000080001afc <printf>:
    80001afc:	fa010113          	addi	sp,sp,-96
    80001b00:	02810313          	addi	t1,sp,40
    80001b04:	02b13423          	sd	a1,40(sp)
    80001b08:	02c13823          	sd	a2,48(sp)
    80001b0c:	02d13c23          	sd	a3,56(sp)
    80001b10:	00050613          	mv	a2,a0
    80001b14:	00030693          	mv	a3,t1
    80001b18:	00000517          	auipc	a0,0x0
    80001b1c:	d6450513          	addi	a0,a0,-668 # 8000187c <putchar>
    80001b20:	00000593          	li	a1,0
    80001b24:	00113c23          	sd	ra,24(sp)
    80001b28:	04e13023          	sd	a4,64(sp)
    80001b2c:	04f13423          	sd	a5,72(sp)
    80001b30:	05013823          	sd	a6,80(sp)
    80001b34:	05113c23          	sd	a7,88(sp)
    80001b38:	00613423          	sd	t1,8(sp)
    80001b3c:	8d9ff0ef          	jal	ra,80001414 <vprintfmt>
    80001b40:	01813083          	ld	ra,24(sp)
    80001b44:	00000513          	li	a0,0
    80001b48:	06010113          	addi	sp,sp,96
    80001b4c:	00008067          	ret

0000000080001b50 <sprintf>:
    80001b50:	fa010113          	addi	sp,sp,-96
    80001b54:	03010313          	addi	t1,sp,48
    80001b58:	02813023          	sd	s0,32(sp)
    80001b5c:	00a13423          	sd	a0,8(sp)
    80001b60:	02c13823          	sd	a2,48(sp)
    80001b64:	02d13c23          	sd	a3,56(sp)
    80001b68:	00050413          	mv	s0,a0
    80001b6c:	00058613          	mv	a2,a1
    80001b70:	00000517          	auipc	a0,0x0
    80001b74:	cf450513          	addi	a0,a0,-780 # 80001864 <sprintf_putch.2924>
    80001b78:	00810593          	addi	a1,sp,8
    80001b7c:	00030693          	mv	a3,t1
    80001b80:	02113423          	sd	ra,40(sp)
    80001b84:	04f13423          	sd	a5,72(sp)
    80001b88:	04e13023          	sd	a4,64(sp)
    80001b8c:	05013823          	sd	a6,80(sp)
    80001b90:	05113c23          	sd	a7,88(sp)
    80001b94:	00613c23          	sd	t1,24(sp)
    80001b98:	87dff0ef          	jal	ra,80001414 <vprintfmt>
    80001b9c:	00813783          	ld	a5,8(sp)
    80001ba0:	00078023          	sb	zero,0(a5)
    80001ba4:	00813503          	ld	a0,8(sp)
    80001ba8:	02813083          	ld	ra,40(sp)
    80001bac:	4085053b          	subw	a0,a0,s0
    80001bb0:	02013403          	ld	s0,32(sp)
    80001bb4:	06010113          	addi	sp,sp,96
    80001bb8:	00008067          	ret

0000000080001bbc <memcpy>:
    80001bbc:	00c5e7b3          	or	a5,a1,a2
    80001bc0:	00f567b3          	or	a5,a0,a5
    80001bc4:	0077f793          	andi	a5,a5,7
    80001bc8:	00c506b3          	add	a3,a0,a2
    80001bcc:	02078463          	beqz	a5,80001bf4 <memcpy+0x38>
    80001bd0:	00c58633          	add	a2,a1,a2
    80001bd4:	00050793          	mv	a5,a0
    80001bd8:	02d57e63          	bleu	a3,a0,80001c14 <memcpy+0x58>
    80001bdc:	00158593          	addi	a1,a1,1
    80001be0:	fff5c703          	lbu	a4,-1(a1)
    80001be4:	00178793          	addi	a5,a5,1
    80001be8:	fee78fa3          	sb	a4,-1(a5)
    80001bec:	feb618e3          	bne	a2,a1,80001bdc <memcpy+0x20>
    80001bf0:	00008067          	ret
    80001bf4:	fed57ee3          	bleu	a3,a0,80001bf0 <memcpy+0x34>
    80001bf8:	00050793          	mv	a5,a0
    80001bfc:	00858593          	addi	a1,a1,8
    80001c00:	ff85b703          	ld	a4,-8(a1)
    80001c04:	00878793          	addi	a5,a5,8
    80001c08:	fee7bc23          	sd	a4,-8(a5)
    80001c0c:	fed7e8e3          	bltu	a5,a3,80001bfc <memcpy+0x40>
    80001c10:	00008067          	ret
    80001c14:	00008067          	ret

0000000080001c18 <memset>:
    80001c18:	00c567b3          	or	a5,a0,a2
    80001c1c:	0077f793          	andi	a5,a5,7
    80001c20:	00c50633          	add	a2,a0,a2
    80001c24:	0ff5f593          	andi	a1,a1,255
    80001c28:	00078e63          	beqz	a5,80001c44 <memset+0x2c>
    80001c2c:	00050793          	mv	a5,a0
    80001c30:	04c57263          	bleu	a2,a0,80001c74 <memset+0x5c>
    80001c34:	00178793          	addi	a5,a5,1
    80001c38:	feb78fa3          	sb	a1,-1(a5)
    80001c3c:	fef61ce3          	bne	a2,a5,80001c34 <memset+0x1c>
    80001c40:	00008067          	ret
    80001c44:	00859793          	slli	a5,a1,0x8
    80001c48:	00f5e7b3          	or	a5,a1,a5
    80001c4c:	01079593          	slli	a1,a5,0x10
    80001c50:	00b7e7b3          	or	a5,a5,a1
    80001c54:	02079713          	slli	a4,a5,0x20
    80001c58:	00e7e7b3          	or	a5,a5,a4
    80001c5c:	fec572e3          	bleu	a2,a0,80001c40 <memset+0x28>
    80001c60:	00050713          	mv	a4,a0
    80001c64:	00870713          	addi	a4,a4,8
    80001c68:	fef73c23          	sd	a5,-8(a4)
    80001c6c:	fec76ce3          	bltu	a4,a2,80001c64 <memset+0x4c>
    80001c70:	00008067          	ret
    80001c74:	00008067          	ret

0000000080001c78 <_init>:
    80001c78:	f0010113          	addi	sp,sp,-256
    80001c7c:	0e813823          	sd	s0,240(sp)
    80001c80:	0e913423          	sd	s1,232(sp)
    80001c84:	00020493          	mv	s1,tp
    80001c88:	00020413          	mv	s0,tp
    80001c8c:	40848433          	sub	s0,s1,s0
    80001c90:	00040613          	mv	a2,s0
    80001c94:	0f213023          	sd	s2,224(sp)
    80001c98:	0d413823          	sd	s4,208(sp)
    80001c9c:	00050913          	mv	s2,a0
    80001ca0:	00058a13          	mv	s4,a1
    80001ca4:	00020513          	mv	a0,tp
    80001ca8:	00004597          	auipc	a1,0x4
    80001cac:	a1858593          	addi	a1,a1,-1512 # 800056c0 <_end>
    80001cb0:	0e113c23          	sd	ra,248(sp)
    80001cb4:	0d313c23          	sd	s3,216(sp)
    80001cb8:	0d513423          	sd	s5,200(sp)
    80001cbc:	0d613023          	sd	s6,192(sp)
    80001cc0:	00020a93          	mv	s5,tp
    80001cc4:	ef9ff0ef          	jal	ra,80001bbc <memcpy>
    80001cc8:	04420613          	addi	a2,tp,68 # 44 <_tbss_end>
    80001ccc:	40960633          	sub	a2,a2,s1
    80001cd0:	008a8533          	add	a0,s5,s0
    80001cd4:	00000593          	li	a1,0
    80001cd8:	f41ff0ef          	jal	ra,80001c18 <memset>
    80001cdc:	000a0593          	mv	a1,s4
    80001ce0:	00090513          	mv	a0,s2
    80001ce4:	db9ff0ef          	jal	ra,80001a9c <thread_entry>
    80001ce8:	03f10993          	addi	s3,sp,63
    80001cec:	00000593          	li	a1,0
    80001cf0:	00000513          	li	a0,0
    80001cf4:	fc09f993          	andi	s3,s3,-64
    80001cf8:	00004497          	auipc	s1,0x4
    80001cfc:	9a848493          	addi	s1,s1,-1624 # 800056a0 <counter_names>
    80001d00:	190000ef          	jal	ra,80001e90 <main>
    80001d04:	00050b13          	mv	s6,a0
    80001d08:	00004417          	auipc	s0,0x4
    80001d0c:	97840413          	addi	s0,s0,-1672 # 80005680 <counters>
    80001d10:	00048a13          	mv	s4,s1
    80001d14:	00098913          	mv	s2,s3
    80001d18:	00001a97          	auipc	s5,0x1
    80001d1c:	fd8a8a93          	addi	s5,s5,-40 # 80002cf0 <main+0xe60>
    80001d20:	00043683          	ld	a3,0(s0)
    80001d24:	02069263          	bnez	a3,80001d48 <_init+0xd0>
    80001d28:	00840413          	addi	s0,s0,8
    80001d2c:	00848493          	addi	s1,s1,8
    80001d30:	ff4418e3          	bne	s0,s4,80001d20 <_init+0xa8>
    80001d34:	01298663          	beq	s3,s2,80001d40 <_init+0xc8>
    80001d38:	00098513          	mv	a0,s3
    80001d3c:	ce1ff0ef          	jal	ra,80001a1c <printstr>
    80001d40:	000b0513          	mv	a0,s6
    80001d44:	c95ff0ef          	jal	ra,800019d8 <tohost_exit>
    80001d48:	0004b603          	ld	a2,0(s1)
    80001d4c:	00090513          	mv	a0,s2
    80001d50:	000a8593          	mv	a1,s5
    80001d54:	dfdff0ef          	jal	ra,80001b50 <sprintf>
    80001d58:	00a90933          	add	s2,s2,a0
    80001d5c:	fcdff06f          	j	80001d28 <_init+0xb0>

0000000080001d60 <strlen>:
    80001d60:	00054783          	lbu	a5,0(a0)
    80001d64:	00050713          	mv	a4,a0
    80001d68:	00078c63          	beqz	a5,80001d80 <strlen+0x20>
    80001d6c:	00150513          	addi	a0,a0,1
    80001d70:	00054783          	lbu	a5,0(a0)
    80001d74:	fe079ce3          	bnez	a5,80001d6c <strlen+0xc>
    80001d78:	40e50533          	sub	a0,a0,a4
    80001d7c:	00008067          	ret
    80001d80:	00000513          	li	a0,0
    80001d84:	00008067          	ret

0000000080001d88 <strnlen>:
    80001d88:	00050713          	mv	a4,a0
    80001d8c:	02058663          	beqz	a1,80001db8 <strnlen+0x30>
    80001d90:	00054783          	lbu	a5,0(a0)
    80001d94:	02078263          	beqz	a5,80001db8 <strnlen+0x30>
    80001d98:	00b505b3          	add	a1,a0,a1
    80001d9c:	00c0006f          	j	80001da8 <strnlen+0x20>
    80001da0:	00054783          	lbu	a5,0(a0)
    80001da4:	00078663          	beqz	a5,80001db0 <strnlen+0x28>
    80001da8:	00150513          	addi	a0,a0,1
    80001dac:	feb51ae3          	bne	a0,a1,80001da0 <strnlen+0x18>
    80001db0:	40e50533          	sub	a0,a0,a4
    80001db4:	00008067          	ret
    80001db8:	00000513          	li	a0,0
    80001dbc:	00008067          	ret

0000000080001dc0 <strcmp>:
    80001dc0:	00150513          	addi	a0,a0,1
    80001dc4:	fff54783          	lbu	a5,-1(a0)
    80001dc8:	00158593          	addi	a1,a1,1
    80001dcc:	fff5c703          	lbu	a4,-1(a1)
    80001dd0:	00078a63          	beqz	a5,80001de4 <strcmp+0x24>
    80001dd4:	fee786e3          	beq	a5,a4,80001dc0 <strcmp>
    80001dd8:	0007851b          	sext.w	a0,a5
    80001ddc:	40e5053b          	subw	a0,a0,a4
    80001de0:	00008067          	ret
    80001de4:	00000513          	li	a0,0
    80001de8:	ff5ff06f          	j	80001ddc <strcmp+0x1c>

0000000080001dec <strcpy>:
    80001dec:	00050793          	mv	a5,a0
    80001df0:	00158593          	addi	a1,a1,1
    80001df4:	fff5c703          	lbu	a4,-1(a1)
    80001df8:	00178793          	addi	a5,a5,1
    80001dfc:	fee78fa3          	sb	a4,-1(a5)
    80001e00:	fe0718e3          	bnez	a4,80001df0 <strcpy+0x4>
    80001e04:	00008067          	ret

0000000080001e08 <atol>:
    80001e08:	00054783          	lbu	a5,0(a0)
    80001e0c:	02000713          	li	a4,32
    80001e10:	00e79863          	bne	a5,a4,80001e20 <atol+0x18>
    80001e14:	00150513          	addi	a0,a0,1
    80001e18:	00054783          	lbu	a5,0(a0)
    80001e1c:	fee78ce3          	beq	a5,a4,80001e14 <atol+0xc>
    80001e20:	fd57871b          	addiw	a4,a5,-43
    80001e24:	0fd77713          	andi	a4,a4,253
    80001e28:	04070263          	beqz	a4,80001e6c <atol+0x64>
    80001e2c:	00054683          	lbu	a3,0(a0)
    80001e30:	00050793          	mv	a5,a0
    80001e34:	00000613          	li	a2,0
    80001e38:	04068863          	beqz	a3,80001e88 <atol+0x80>
    80001e3c:	00000513          	li	a0,0
    80001e40:	00178793          	addi	a5,a5,1
    80001e44:	fd06859b          	addiw	a1,a3,-48
    80001e48:	00251713          	slli	a4,a0,0x2
    80001e4c:	0007c683          	lbu	a3,0(a5)
    80001e50:	00a70533          	add	a0,a4,a0
    80001e54:	00151513          	slli	a0,a0,0x1
    80001e58:	00a58533          	add	a0,a1,a0
    80001e5c:	fe0692e3          	bnez	a3,80001e40 <atol+0x38>
    80001e60:	00060463          	beqz	a2,80001e68 <atol+0x60>
    80001e64:	40a00533          	neg	a0,a0
    80001e68:	00008067          	ret
    80001e6c:	00154683          	lbu	a3,1(a0)
    80001e70:	fd378793          	addi	a5,a5,-45
    80001e74:	0017b613          	seqz	a2,a5
    80001e78:	00150793          	addi	a5,a0,1
    80001e7c:	fc0690e3          	bnez	a3,80001e3c <atol+0x34>
    80001e80:	00000513          	li	a0,0
    80001e84:	fddff06f          	j	80001e60 <atol+0x58>
    80001e88:	00000513          	li	a0,0
    80001e8c:	00008067          	ret

Disassembly of section .text.startup:

0000000080001e90 <main>:
    80001e90:	f3010113          	addi	sp,sp,-208
    80001e94:	0c113423          	sd	ra,200(sp)
    80001e98:	0c813023          	sd	s0,192(sp)
    80001e9c:	0a913c23          	sd	s1,184(sp)
    80001ea0:	0d010413          	addi	s0,sp,208
    80001ea4:	0b213823          	sd	s2,176(sp)
    80001ea8:	0b313423          	sd	s3,168(sp)
    80001eac:	0b413023          	sd	s4,160(sp)
    80001eb0:	09513c23          	sd	s5,152(sp)
    80001eb4:	09613823          	sd	s6,144(sp)
    80001eb8:	09713423          	sd	s7,136(sp)
    80001ebc:	09813023          	sd	s8,128(sp)
    80001ec0:	07913c23          	sd	s9,120(sp)
    80001ec4:	07a13823          	sd	s10,112(sp)
    80001ec8:	07b13423          	sd	s11,104(sp)
    80001ecc:	00000797          	auipc	a5,0x0
    80001ed0:	7ac78793          	addi	a5,a5,1964 # 80002678 <main+0x7e8>
    80001ed4:	fb010113          	addi	sp,sp,-80
    80001ed8:	00010613          	mv	a2,sp
    80001edc:	0007a903          	lw	s2,0(a5)
    80001ee0:	fb010113          	addi	sp,sp,-80
    80001ee4:	00010713          	mv	a4,sp
    80001ee8:	0087a383          	lw	t2,8(a5)
    80001eec:	00c7a283          	lw	t0,12(a5)
    80001ef0:	0107af83          	lw	t6,16(a5)
    80001ef4:	0147af03          	lw	t5,20(a5)
    80001ef8:	0187ae83          	lw	t4,24(a5)
    80001efc:	01c7de03          	lhu	t3,28(a5)
    80001f00:	01e7c303          	lbu	t1,30(a5)
    80001f04:	0047a483          	lw	s1,4(a5)
    80001f08:	00200793          	li	a5,2
    80001f0c:	00f72623          	sw	a5,12(a4)
    80001f10:	02800793          	li	a5,40
    80001f14:	00001697          	auipc	a3,0x1
    80001f18:	d2468693          	addi	a3,a3,-732 # 80002c38 <main+0xda8>
    80001f1c:	00c73023          	sd	a2,0(a4)
    80001f20:	00f72823          	sw	a5,16(a4)
    80001f24:	00072423          	sw	zero,8(a4)
    80001f28:	01272a23          	sw	s2,20(a4)
    80001f2c:	0106b503          	ld	a0,16(a3)
    80001f30:	0186a583          	lw	a1,24(a3)
    80001f34:	0006b883          	ld	a7,0(a3)
    80001f38:	0086b803          	ld	a6,8(a3)
    80001f3c:	00001097          	auipc	ra,0x1
    80001f40:	f4c0be23          	sd	a2,-164(ra) # 80002e98 <Next_Ptr_Glob>
    80001f44:	01e6c783          	lbu	a5,30(a3)
    80001f48:	00772e23          	sw	t2,28(a4)
    80001f4c:	02572023          	sw	t0,32(a4)
    80001f50:	03f72223          	sw	t6,36(a4)
    80001f54:	03e72423          	sw	t5,40(a4)
    80001f58:	03d72623          	sw	t4,44(a4)
    80001f5c:	03c71823          	sh	t3,48(a4)
    80001f60:	02670923          	sb	t1,50(a4)
    80001f64:	84e1b423          	sd	a4,-1976(gp) # 80002ea0 <Ptr_Glob>
    80001f68:	00972c23          	sw	s1,24(a4)
    80001f6c:	01c6d703          	lhu	a4,28(a3)
    80001f70:	f6a43023          	sd	a0,-160(s0)
    80001f74:	f6f40723          	sb	a5,-146(s0)
    80001f78:	00001517          	auipc	a0,0x1
    80001f7c:	9a050513          	addi	a0,a0,-1632 # 80002918 <main+0xa88>
    80001f80:	00a00793          	li	a5,10
    80001f84:	f6e41623          	sh	a4,-148(s0)
    80001f88:	f5143823          	sd	a7,-176(s0)
    80001f8c:	00001717          	auipc	a4,0x1
    80001f90:	64f72023          	sw	a5,1600(a4) # 800035cc <Arr_2_Glob+0x65c>
    80001f94:	f5043c23          	sd	a6,-168(s0)
    80001f98:	f6b42423          	sw	a1,-152(s0)
    80001f9c:	a88ff0ef          	jal	ra,80001224 <debug_printf>
    80001fa0:	00000597          	auipc	a1,0x0
    80001fa4:	6f858593          	addi	a1,a1,1784 # 80002698 <main+0x808>
    80001fa8:	00000517          	auipc	a0,0x0
    80001fac:	70050513          	addi	a0,a0,1792 # 800026a8 <main+0x818>
    80001fb0:	a74ff0ef          	jal	ra,80001224 <debug_printf>
    80001fb4:	00001797          	auipc	a5,0x1
    80001fb8:	ed078793          	addi	a5,a5,-304 # 80002e84 <Reg>
    80001fbc:	0007a783          	lw	a5,0(a5)
    80001fc0:	68078063          	beqz	a5,80002640 <main+0x7b0>
    80001fc4:	00000517          	auipc	a0,0x0
    80001fc8:	70c50513          	addi	a0,a0,1804 # 800026d0 <main+0x840>
    80001fcc:	a58ff0ef          	jal	ra,80001224 <debug_printf>
    80001fd0:	000f4637          	lui	a2,0xf4
    80001fd4:	24060613          	addi	a2,a2,576 # f4240 <_tbss_end+0xf41fc>
    80001fd8:	00000597          	auipc	a1,0x0
    80001fdc:	75858593          	addi	a1,a1,1880 # 80002730 <main+0x8a0>
    80001fe0:	00000517          	auipc	a0,0x0
    80001fe4:	76050513          	addi	a0,a0,1888 # 80002740 <main+0x8b0>
    80001fe8:	a3cff0ef          	jal	ra,80001224 <debug_printf>
    80001fec:	00001517          	auipc	a0,0x1
    80001ff0:	92c50513          	addi	a0,a0,-1748 # 80002918 <main+0xa88>
    80001ff4:	a30ff0ef          	jal	ra,80001224 <debug_printf>
    80001ff8:	1f400793          	li	a5,500
    80001ffc:	f2f43823          	sd	a5,-208(s0)
    80002000:	00001a17          	auipc	s4,0x1
    80002004:	c58a0a13          	addi	s4,s4,-936 # 80002c58 <main+0xdc8>
    80002008:	00001797          	auipc	a5,0x1
    8000200c:	e607ac23          	sw	zero,-392(a5) # 80002e80 <Done>
    80002010:	84818d13          	addi	s10,gp,-1976 # 80002ea0 <Ptr_Glob>
    80002014:	00001997          	auipc	s3,0x1
    80002018:	e7498993          	addi	s3,s3,-396 # 80002e88 <Ch_2_Glob>
    8000201c:	00001497          	auipc	s1,0x1
    80002020:	c5c48493          	addi	s1,s1,-932 # 80002c78 <main+0xde8>
    80002024:	f3043903          	ld	s2,-208(s0)
    80002028:	00000517          	auipc	a0,0x0
    8000202c:	73050513          	addi	a0,a0,1840 # 80002758 <main+0x8c8>
    80002030:	00090593          	mv	a1,s2
    80002034:	9f0ff0ef          	jal	ra,80001224 <debug_printf>
    80002038:	00100513          	li	a0,1
    8000203c:	8d9ff0ef          	jal	ra,80001914 <setStats>
    80002040:	b00027f3          	csrr	a5,mcycle
    80002044:	00100a93          	li	s5,1
    80002048:	00190c9b          	addiw	s9,s2,1
    8000204c:	00001717          	auipc	a4,0x1
    80002050:	e2f73623          	sd	a5,-468(a4) # 80002e78 <Begin_Time>
    80002054:	00200c13          	li	s8,2
    80002058:	00100b93          	li	s7,1
    8000205c:	00200913          	li	s2,2
    80002060:	b9cff0ef          	jal	ra,800013fc <Proc_5>
    80002064:	b64ff0ef          	jal	ra,800013c8 <Proc_4>
    80002068:	010a3603          	ld	a2,16(s4)
    8000206c:	01ea4783          	lbu	a5,30(s4)
    80002070:	000a3883          	ld	a7,0(s4)
    80002074:	008a3803          	ld	a6,8(s4)
    80002078:	018a2683          	lw	a3,24(s4)
    8000207c:	01ca5703          	lhu	a4,28(s4)
    80002080:	f7040593          	addi	a1,s0,-144
    80002084:	f5040513          	addi	a0,s0,-176
    80002088:	f8c43023          	sd	a2,-128(s0)
    8000208c:	f8f40723          	sb	a5,-114(s0)
    80002090:	f5842223          	sw	s8,-188(s0)
    80002094:	f7143823          	sd	a7,-144(s0)
    80002098:	f7043c23          	sd	a6,-136(s0)
    8000209c:	f8d42423          	sw	a3,-120(s0)
    800020a0:	f8e41623          	sh	a4,-116(s0)
    800020a4:	f5742623          	sw	s7,-180(s0)
    800020a8:	840ff0ef          	jal	ra,800010e8 <Func_2>
    800020ac:	f4442603          	lw	a2,-188(s0)
    800020b0:	00153513          	seqz	a0,a0
    800020b4:	00001797          	auipc	a5,0x1
    800020b8:	dca7ac23          	sw	a0,-552(a5) # 80002e8c <Bool_Glob>
    800020bc:	02c94a63          	blt	s2,a2,800020f0 <main+0x260>
    800020c0:	0026179b          	slliw	a5,a2,0x2
    800020c4:	00c787bb          	addw	a5,a5,a2
    800020c8:	ffd7879b          	addiw	a5,a5,-3
    800020cc:	00060513          	mv	a0,a2
    800020d0:	00300593          	li	a1,3
    800020d4:	f4840613          	addi	a2,s0,-184
    800020d8:	f4f42423          	sw	a5,-184(s0)
    800020dc:	f6dfe0ef          	jal	ra,80001048 <Proc_7>
    800020e0:	f4442783          	lw	a5,-188(s0)
    800020e4:	0017861b          	addiw	a2,a5,1
    800020e8:	f4c42223          	sw	a2,-188(s0)
    800020ec:	fcc95ae3          	ble	a2,s2,800020c0 <main+0x230>
    800020f0:	f4842683          	lw	a3,-184(s0)
    800020f4:	00001597          	auipc	a1,0x1
    800020f8:	e7c58593          	addi	a1,a1,-388 # 80002f70 <Arr_2_Glob>
    800020fc:	85018513          	addi	a0,gp,-1968 # 80002ea8 <Arr_1_Glob>
    80002100:	f59fe0ef          	jal	ra,80001058 <Proc_8>
    80002104:	000d3503          	ld	a0,0(s10)
    80002108:	9a8ff0ef          	jal	ra,800012b0 <Proc_1>
    8000210c:	0009c703          	lbu	a4,0(s3)
    80002110:	04000793          	li	a5,64
    80002114:	4ee7f263          	bleu	a4,a5,800025f8 <main+0x768>
    80002118:	04100b13          	li	s6,65
    8000211c:	00300d93          	li	s11,3
    80002120:	0140006f          	j	80002134 <main+0x2a4>
    80002124:	0009c783          	lbu	a5,0(s3)
    80002128:	001b0b1b          	addiw	s6,s6,1
    8000212c:	0ffb7b13          	andi	s6,s6,255
    80002130:	0767ea63          	bltu	a5,s6,800021a4 <main+0x314>
    80002134:	04300593          	li	a1,67
    80002138:	000b0513          	mv	a0,s6
    8000213c:	f89fe0ef          	jal	ra,800010c4 <Func_1>
    80002140:	f4c42783          	lw	a5,-180(s0)
    80002144:	0005051b          	sext.w	a0,a0
    80002148:	fca79ee3          	bne	a5,a0,80002124 <main+0x294>
    8000214c:	f4c40593          	addi	a1,s0,-180
    80002150:	00000513          	li	a0,0
    80002154:	808ff0ef          	jal	ra,8000115c <Proc_6>
    80002158:	01e4c783          	lbu	a5,30(s1)
    8000215c:	0004b503          	ld	a0,0(s1)
    80002160:	0084b583          	ld	a1,8(s1)
    80002164:	f8f40723          	sb	a5,-114(s0)
    80002168:	0104b603          	ld	a2,16(s1)
    8000216c:	0184a683          	lw	a3,24(s1)
    80002170:	01c4d703          	lhu	a4,28(s1)
    80002174:	00001797          	auipc	a5,0x1
    80002178:	d157ae23          	sw	s5,-740(a5) # 80002e90 <Int_Glob>
    8000217c:	0009c783          	lbu	a5,0(s3)
    80002180:	001b0b1b          	addiw	s6,s6,1
    80002184:	f6a43823          	sd	a0,-144(s0)
    80002188:	f6b43c23          	sd	a1,-136(s0)
    8000218c:	f8c43023          	sd	a2,-128(s0)
    80002190:	f8d42423          	sw	a3,-120(s0)
    80002194:	f8e41623          	sh	a4,-116(s0)
    80002198:	0ffb7b13          	andi	s6,s6,255
    8000219c:	000a8d93          	mv	s11,s5
    800021a0:	f967fae3          	bleu	s6,a5,80002134 <main+0x2a4>
    800021a4:	f4442783          	lw	a5,-188(s0)
    800021a8:	f4842b03          	lw	s6,-184(s0)
    800021ac:	001a8a9b          	addiw	s5,s5,1
    800021b0:	03b78dbb          	mulw	s11,a5,s11
    800021b4:	f4440513          	addi	a0,s0,-188
    800021b8:	036dc73b          	divw	a4,s11,s6
    800021bc:	f2e43c23          	sd	a4,-200(s0)
    800021c0:	f4e42223          	sw	a4,-188(s0)
    800021c4:	888ff0ef          	jal	ra,8000124c <Proc_2>
    800021c8:	e99a9ce3          	bne	s5,s9,80002060 <main+0x1d0>
    800021cc:	b00027f3          	csrr	a5,mcycle
    800021d0:	00000513          	li	a0,0
    800021d4:	00001717          	auipc	a4,0x1
    800021d8:	c8f73e23          	sd	a5,-868(a4) # 80002e70 <End_Time>
    800021dc:	f38ff0ef          	jal	ra,80001914 <setStats>
    800021e0:	00001797          	auipc	a5,0x1
    800021e4:	c9078793          	addi	a5,a5,-880 # 80002e70 <End_Time>
    800021e8:	00001717          	auipc	a4,0x1
    800021ec:	c9070713          	addi	a4,a4,-880 # 80002e78 <Begin_Time>
    800021f0:	00073703          	ld	a4,0(a4)
    800021f4:	0007b783          	ld	a5,0(a5)
    800021f8:	40e787b3          	sub	a5,a5,a4
    800021fc:	00001717          	auipc	a4,0x1
    80002200:	c6f73623          	sd	a5,-916(a4) # 80002e68 <User_Time>
    80002204:	3ef05e63          	blez	a5,80002600 <main+0x770>
    80002208:	00100793          	li	a5,1
    8000220c:	00001717          	auipc	a4,0x1
    80002210:	c6f72a23          	sw	a5,-908(a4) # 80002e80 <Done>
    80002214:	00000517          	auipc	a0,0x0
    80002218:	5a450513          	addi	a0,a0,1444 # 800027b8 <main+0x928>
    8000221c:	808ff0ef          	jal	ra,80001224 <debug_printf>
    80002220:	00000517          	auipc	a0,0x0
    80002224:	6f850513          	addi	a0,a0,1784 # 80002918 <main+0xa88>
    80002228:	ffdfe0ef          	jal	ra,80001224 <debug_printf>
    8000222c:	00001797          	auipc	a5,0x1
    80002230:	c6478793          	addi	a5,a5,-924 # 80002e90 <Int_Glob>
    80002234:	0007a583          	lw	a1,0(a5)
    80002238:	00000517          	auipc	a0,0x0
    8000223c:	5b850513          	addi	a0,a0,1464 # 800027f0 <main+0x960>
    80002240:	00001497          	auipc	s1,0x1
    80002244:	c5848493          	addi	s1,s1,-936 # 80002e98 <Next_Ptr_Glob>
    80002248:	fddfe0ef          	jal	ra,80001224 <debug_printf>
    8000224c:	00500593          	li	a1,5
    80002250:	00000517          	auipc	a0,0x0
    80002254:	5c050513          	addi	a0,a0,1472 # 80002810 <main+0x980>
    80002258:	fcdfe0ef          	jal	ra,80001224 <debug_printf>
    8000225c:	00001797          	auipc	a5,0x1
    80002260:	c3078793          	addi	a5,a5,-976 # 80002e8c <Bool_Glob>
    80002264:	0007a583          	lw	a1,0(a5)
    80002268:	00000517          	auipc	a0,0x0
    8000226c:	5c850513          	addi	a0,a0,1480 # 80002830 <main+0x9a0>
    80002270:	416d8b3b          	subw	s6,s11,s6
    80002274:	fb1fe0ef          	jal	ra,80001224 <debug_printf>
    80002278:	00100593          	li	a1,1
    8000227c:	00000517          	auipc	a0,0x0
    80002280:	59450513          	addi	a0,a0,1428 # 80002810 <main+0x980>
    80002284:	fa1fe0ef          	jal	ra,80001224 <debug_printf>
    80002288:	00001597          	auipc	a1,0x1
    8000228c:	c015c583          	lbu	a1,-1023(a1) # 80002e89 <Ch_1_Glob>
    80002290:	00000517          	auipc	a0,0x0
    80002294:	5c050513          	addi	a0,a0,1472 # 80002850 <main+0x9c0>
    80002298:	f8dfe0ef          	jal	ra,80001224 <debug_printf>
    8000229c:	04100593          	li	a1,65
    800022a0:	00000517          	auipc	a0,0x0
    800022a4:	5d050513          	addi	a0,a0,1488 # 80002870 <main+0x9e0>
    800022a8:	f7dfe0ef          	jal	ra,80001224 <debug_printf>
    800022ac:	00001597          	auipc	a1,0x1
    800022b0:	bdc5c583          	lbu	a1,-1060(a1) # 80002e88 <Ch_2_Glob>
    800022b4:	00000517          	auipc	a0,0x0
    800022b8:	5dc50513          	addi	a0,a0,1500 # 80002890 <main+0xa00>
    800022bc:	f69fe0ef          	jal	ra,80001224 <debug_printf>
    800022c0:	04200593          	li	a1,66
    800022c4:	00000517          	auipc	a0,0x0
    800022c8:	5ac50513          	addi	a0,a0,1452 # 80002870 <main+0x9e0>
    800022cc:	f59fe0ef          	jal	ra,80001224 <debug_printf>
    800022d0:	85018793          	addi	a5,gp,-1968 # 80002ea8 <Arr_1_Glob>
    800022d4:	0207a583          	lw	a1,32(a5)
    800022d8:	00000517          	auipc	a0,0x0
    800022dc:	5d850513          	addi	a0,a0,1496 # 800028b0 <main+0xa20>
    800022e0:	f45fe0ef          	jal	ra,80001224 <debug_printf>
    800022e4:	00700593          	li	a1,7
    800022e8:	00000517          	auipc	a0,0x0
    800022ec:	52850513          	addi	a0,a0,1320 # 80002810 <main+0x980>
    800022f0:	f35fe0ef          	jal	ra,80001224 <debug_printf>
    800022f4:	00001797          	auipc	a5,0x1
    800022f8:	c7c78793          	addi	a5,a5,-900 # 80002f70 <Arr_2_Glob>
    800022fc:	65c7a583          	lw	a1,1628(a5)
    80002300:	00000517          	auipc	a0,0x0
    80002304:	5d050513          	addi	a0,a0,1488 # 800028d0 <main+0xa40>
    80002308:	f1dfe0ef          	jal	ra,80001224 <debug_printf>
    8000230c:	00000517          	auipc	a0,0x0
    80002310:	5e450513          	addi	a0,a0,1508 # 800028f0 <main+0xa60>
    80002314:	f11fe0ef          	jal	ra,80001224 <debug_printf>
    80002318:	00000517          	auipc	a0,0x0
    8000231c:	60850513          	addi	a0,a0,1544 # 80002920 <main+0xa90>
    80002320:	f05fe0ef          	jal	ra,80001224 <debug_printf>
    80002324:	000d3783          	ld	a5,0(s10)
    80002328:	00000517          	auipc	a0,0x0
    8000232c:	60850513          	addi	a0,a0,1544 # 80002930 <main+0xaa0>
    80002330:	0007b583          	ld	a1,0(a5)
    80002334:	ef1fe0ef          	jal	ra,80001224 <debug_printf>
    80002338:	00000517          	auipc	a0,0x0
    8000233c:	61850513          	addi	a0,a0,1560 # 80002950 <main+0xac0>
    80002340:	ee5fe0ef          	jal	ra,80001224 <debug_printf>
    80002344:	000d3783          	ld	a5,0(s10)
    80002348:	00000517          	auipc	a0,0x0
    8000234c:	64050513          	addi	a0,a0,1600 # 80002988 <main+0xaf8>
    80002350:	0087a583          	lw	a1,8(a5)
    80002354:	ed1fe0ef          	jal	ra,80001224 <debug_printf>
    80002358:	00000593          	li	a1,0
    8000235c:	00000517          	auipc	a0,0x0
    80002360:	4b450513          	addi	a0,a0,1204 # 80002810 <main+0x980>
    80002364:	ec1fe0ef          	jal	ra,80001224 <debug_printf>
    80002368:	000d3783          	ld	a5,0(s10)
    8000236c:	00000517          	auipc	a0,0x0
    80002370:	63c50513          	addi	a0,a0,1596 # 800029a8 <main+0xb18>
    80002374:	00c7a583          	lw	a1,12(a5)
    80002378:	eadfe0ef          	jal	ra,80001224 <debug_printf>
    8000237c:	00200593          	li	a1,2
    80002380:	00000517          	auipc	a0,0x0
    80002384:	49050513          	addi	a0,a0,1168 # 80002810 <main+0x980>
    80002388:	e9dfe0ef          	jal	ra,80001224 <debug_printf>
    8000238c:	000d3783          	ld	a5,0(s10)
    80002390:	00000517          	auipc	a0,0x0
    80002394:	63850513          	addi	a0,a0,1592 # 800029c8 <main+0xb38>
    80002398:	0107a583          	lw	a1,16(a5)
    8000239c:	e89fe0ef          	jal	ra,80001224 <debug_printf>
    800023a0:	01100593          	li	a1,17
    800023a4:	00000517          	auipc	a0,0x0
    800023a8:	46c50513          	addi	a0,a0,1132 # 80002810 <main+0x980>
    800023ac:	e79fe0ef          	jal	ra,80001224 <debug_printf>
    800023b0:	000d3583          	ld	a1,0(s10)
    800023b4:	00000517          	auipc	a0,0x0
    800023b8:	63450513          	addi	a0,a0,1588 # 800029e8 <main+0xb58>
    800023bc:	01458593          	addi	a1,a1,20
    800023c0:	e65fe0ef          	jal	ra,80001224 <debug_printf>
    800023c4:	00000517          	auipc	a0,0x0
    800023c8:	64450513          	addi	a0,a0,1604 # 80002a08 <main+0xb78>
    800023cc:	e59fe0ef          	jal	ra,80001224 <debug_printf>
    800023d0:	00000517          	auipc	a0,0x0
    800023d4:	67050513          	addi	a0,a0,1648 # 80002a40 <main+0xbb0>
    800023d8:	e4dfe0ef          	jal	ra,80001224 <debug_printf>
    800023dc:	0004b783          	ld	a5,0(s1)
    800023e0:	00000517          	auipc	a0,0x0
    800023e4:	55050513          	addi	a0,a0,1360 # 80002930 <main+0xaa0>
    800023e8:	0007b583          	ld	a1,0(a5)
    800023ec:	e39fe0ef          	jal	ra,80001224 <debug_printf>
    800023f0:	00000517          	auipc	a0,0x0
    800023f4:	66850513          	addi	a0,a0,1640 # 80002a58 <main+0xbc8>
    800023f8:	e2dfe0ef          	jal	ra,80001224 <debug_printf>
    800023fc:	0004b783          	ld	a5,0(s1)
    80002400:	00000517          	auipc	a0,0x0
    80002404:	58850513          	addi	a0,a0,1416 # 80002988 <main+0xaf8>
    80002408:	0087a583          	lw	a1,8(a5)
    8000240c:	e19fe0ef          	jal	ra,80001224 <debug_printf>
    80002410:	00000593          	li	a1,0
    80002414:	00000517          	auipc	a0,0x0
    80002418:	3fc50513          	addi	a0,a0,1020 # 80002810 <main+0x980>
    8000241c:	e09fe0ef          	jal	ra,80001224 <debug_printf>
    80002420:	0004b783          	ld	a5,0(s1)
    80002424:	00000517          	auipc	a0,0x0
    80002428:	58450513          	addi	a0,a0,1412 # 800029a8 <main+0xb18>
    8000242c:	00c7a583          	lw	a1,12(a5)
    80002430:	df5fe0ef          	jal	ra,80001224 <debug_printf>
    80002434:	00100593          	li	a1,1
    80002438:	00000517          	auipc	a0,0x0
    8000243c:	3d850513          	addi	a0,a0,984 # 80002810 <main+0x980>
    80002440:	de5fe0ef          	jal	ra,80001224 <debug_printf>
    80002444:	0004b783          	ld	a5,0(s1)
    80002448:	00000517          	auipc	a0,0x0
    8000244c:	58050513          	addi	a0,a0,1408 # 800029c8 <main+0xb38>
    80002450:	0107a583          	lw	a1,16(a5)
    80002454:	dd1fe0ef          	jal	ra,80001224 <debug_printf>
    80002458:	01200593          	li	a1,18
    8000245c:	00000517          	auipc	a0,0x0
    80002460:	3b450513          	addi	a0,a0,948 # 80002810 <main+0x980>
    80002464:	dc1fe0ef          	jal	ra,80001224 <debug_printf>
    80002468:	0004b583          	ld	a1,0(s1)
    8000246c:	00000517          	auipc	a0,0x0
    80002470:	57c50513          	addi	a0,a0,1404 # 800029e8 <main+0xb58>
    80002474:	01458593          	addi	a1,a1,20
    80002478:	dadfe0ef          	jal	ra,80001224 <debug_printf>
    8000247c:	00000517          	auipc	a0,0x0
    80002480:	58c50513          	addi	a0,a0,1420 # 80002a08 <main+0xb78>
    80002484:	da1fe0ef          	jal	ra,80001224 <debug_printf>
    80002488:	f4442583          	lw	a1,-188(s0)
    8000248c:	00000517          	auipc	a0,0x0
    80002490:	60c50513          	addi	a0,a0,1548 # 80002a98 <main+0xc08>
    80002494:	d91fe0ef          	jal	ra,80001224 <debug_printf>
    80002498:	00500593          	li	a1,5
    8000249c:	00000517          	auipc	a0,0x0
    800024a0:	37450513          	addi	a0,a0,884 # 80002810 <main+0x980>
    800024a4:	d81fe0ef          	jal	ra,80001224 <debug_printf>
    800024a8:	003b179b          	slliw	a5,s6,0x3
    800024ac:	41678b3b          	subw	s6,a5,s6
    800024b0:	f3843783          	ld	a5,-200(s0)
    800024b4:	00000517          	auipc	a0,0x0
    800024b8:	60450513          	addi	a0,a0,1540 # 80002ab8 <main+0xc28>
    800024bc:	40fb05bb          	subw	a1,s6,a5
    800024c0:	d65fe0ef          	jal	ra,80001224 <debug_printf>
    800024c4:	00d00593          	li	a1,13
    800024c8:	00000517          	auipc	a0,0x0
    800024cc:	34850513          	addi	a0,a0,840 # 80002810 <main+0x980>
    800024d0:	d55fe0ef          	jal	ra,80001224 <debug_printf>
    800024d4:	f4842583          	lw	a1,-184(s0)
    800024d8:	00000517          	auipc	a0,0x0
    800024dc:	60050513          	addi	a0,a0,1536 # 80002ad8 <main+0xc48>
    800024e0:	d45fe0ef          	jal	ra,80001224 <debug_printf>
    800024e4:	00700593          	li	a1,7
    800024e8:	00000517          	auipc	a0,0x0
    800024ec:	32850513          	addi	a0,a0,808 # 80002810 <main+0x980>
    800024f0:	d35fe0ef          	jal	ra,80001224 <debug_printf>
    800024f4:	f4c42583          	lw	a1,-180(s0)
    800024f8:	00000517          	auipc	a0,0x0
    800024fc:	60050513          	addi	a0,a0,1536 # 80002af8 <main+0xc68>
    80002500:	d25fe0ef          	jal	ra,80001224 <debug_printf>
    80002504:	00000517          	auipc	a0,0x0
    80002508:	30c50513          	addi	a0,a0,780 # 80002810 <main+0x980>
    8000250c:	00100593          	li	a1,1
    80002510:	d15fe0ef          	jal	ra,80001224 <debug_printf>
    80002514:	f5040593          	addi	a1,s0,-176
    80002518:	00000517          	auipc	a0,0x0
    8000251c:	60050513          	addi	a0,a0,1536 # 80002b18 <main+0xc88>
    80002520:	d05fe0ef          	jal	ra,80001224 <debug_printf>
    80002524:	00000517          	auipc	a0,0x0
    80002528:	61450513          	addi	a0,a0,1556 # 80002b38 <main+0xca8>
    8000252c:	cf9fe0ef          	jal	ra,80001224 <debug_printf>
    80002530:	f7040593          	addi	a1,s0,-144
    80002534:	00000517          	auipc	a0,0x0
    80002538:	63c50513          	addi	a0,a0,1596 # 80002b70 <main+0xce0>
    8000253c:	ce9fe0ef          	jal	ra,80001224 <debug_printf>
    80002540:	00000517          	auipc	a0,0x0
    80002544:	65050513          	addi	a0,a0,1616 # 80002b90 <main+0xd00>
    80002548:	cddfe0ef          	jal	ra,80001224 <debug_printf>
    8000254c:	00000517          	auipc	a0,0x0
    80002550:	3cc50513          	addi	a0,a0,972 # 80002918 <main+0xa88>
    80002554:	cd1fe0ef          	jal	ra,80001224 <debug_printf>
    80002558:	f3043603          	ld	a2,-208(s0)
    8000255c:	000f4737          	lui	a4,0xf4
    80002560:	2407071b          	addiw	a4,a4,576
    80002564:	02c7073b          	mulw	a4,a4,a2
    80002568:	00001797          	auipc	a5,0x1
    8000256c:	90078793          	addi	a5,a5,-1792 # 80002e68 <User_Time>
    80002570:	0007b683          	ld	a3,0(a5)
    80002574:	00000517          	auipc	a0,0x0
    80002578:	65450513          	addi	a0,a0,1620 # 80002bc8 <main+0xd38>
    8000257c:	02c6c7b3          	div	a5,a3,a2
    80002580:	02d74733          	div	a4,a4,a3
    80002584:	00078593          	mv	a1,a5
    80002588:	00001697          	auipc	a3,0x1
    8000258c:	8cf6bc23          	sd	a5,-1832(a3) # 80002e60 <Microseconds>
    80002590:	00001797          	auipc	a5,0x1
    80002594:	8ce7b423          	sd	a4,-1848(a5) # 80002e58 <Dhrystones_Per_Second>
    80002598:	d64ff0ef          	jal	ra,80001afc <printf>
    8000259c:	00001797          	auipc	a5,0x1
    800025a0:	8bc78793          	addi	a5,a5,-1860 # 80002e58 <Dhrystones_Per_Second>
    800025a4:	0007b583          	ld	a1,0(a5)
    800025a8:	00000517          	auipc	a0,0x0
    800025ac:	65850513          	addi	a0,a0,1624 # 80002c00 <main+0xd70>
    800025b0:	d4cff0ef          	jal	ra,80001afc <printf>
    800025b4:	f3040113          	addi	sp,s0,-208
    800025b8:	0c813083          	ld	ra,200(sp)
    800025bc:	00000513          	li	a0,0
    800025c0:	0c013403          	ld	s0,192(sp)
    800025c4:	0b813483          	ld	s1,184(sp)
    800025c8:	0b013903          	ld	s2,176(sp)
    800025cc:	0a813983          	ld	s3,168(sp)
    800025d0:	0a013a03          	ld	s4,160(sp)
    800025d4:	09813a83          	ld	s5,152(sp)
    800025d8:	09013b03          	ld	s6,144(sp)
    800025dc:	08813b83          	ld	s7,136(sp)
    800025e0:	08013c03          	ld	s8,128(sp)
    800025e4:	07813c83          	ld	s9,120(sp)
    800025e8:	07013d03          	ld	s10,112(sp)
    800025ec:	06813d83          	ld	s11,104(sp)
    800025f0:	0d010113          	addi	sp,sp,208
    800025f4:	00008067          	ret
    800025f8:	00300d93          	li	s11,3
    800025fc:	ba9ff06f          	j	800021a4 <main+0x314>
    80002600:	00000517          	auipc	a0,0x0
    80002604:	18050513          	addi	a0,a0,384 # 80002780 <main+0x8f0>
    80002608:	cf4ff0ef          	jal	ra,80001afc <printf>
    8000260c:	f3043703          	ld	a4,-208(s0)
    80002610:	00000517          	auipc	a0,0x0
    80002614:	30850513          	addi	a0,a0,776 # 80002918 <main+0xa88>
    80002618:	0027179b          	slliw	a5,a4,0x2
    8000261c:	00e787bb          	addw	a5,a5,a4
    80002620:	0017979b          	slliw	a5,a5,0x1
    80002624:	f2f43823          	sd	a5,-208(s0)
    80002628:	cd4ff0ef          	jal	ra,80001afc <printf>
    8000262c:	00001797          	auipc	a5,0x1
    80002630:	85478793          	addi	a5,a5,-1964 # 80002e80 <Done>
    80002634:	0007a783          	lw	a5,0(a5)
    80002638:	9e0786e3          	beqz	a5,80002024 <main+0x194>
    8000263c:	bd9ff06f          	j	80002214 <main+0x384>
    80002640:	00000517          	auipc	a0,0x0
    80002644:	0c050513          	addi	a0,a0,192 # 80002700 <main+0x870>
    80002648:	bddfe0ef          	jal	ra,80001224 <debug_printf>
    8000264c:	985ff06f          	j	80001fd0 <main+0x140>
    80002650:	ff010113          	addi	sp,sp,-16
    80002654:	00000517          	auipc	a0,0x0
    80002658:	68450513          	addi	a0,a0,1668 # 80002cd8 <main+0xe48>
    8000265c:	00113423          	sd	ra,8(sp)
    80002660:	bbcff0ef          	jal	ra,80001a1c <printstr>
    80002664:	00813083          	ld	ra,8(sp)
    80002668:	fff00513          	li	a0,-1
    8000266c:	01010113          	addi	sp,sp,16
    80002670:	00008067          	ret
