
rsort.riscv:     file format elf64-littleriscv


Disassembly of section .text:

0000000080001048 <verify.constprop.1>:
    80001048:	00050793          	mv	a5,a0
    8000104c:	00003717          	auipc	a4,0x3
    80001050:	07470713          	addi	a4,a4,116 # 800040c0 <input_data>
    80001054:	00000513          	li	a0,0
    80001058:	00072583          	lw	a1,0(a4)
    8000105c:	0007a803          	lw	a6,0(a5)
    80001060:	00472683          	lw	a3,4(a4)
    80001064:	0025061b          	addiw	a2,a0,2
    80001068:	8006031b          	addiw	t1,a2,-2048
    8000106c:	0047a883          	lw	a7,4(a5)
    80001070:	0006869b          	sext.w	a3,a3
    80001074:	02b81063          	bne	a6,a1,80001094 <verify.constprop.1+0x4c>
    80001078:	0006051b          	sext.w	a0,a2
    8000107c:	01169a63          	bne	a3,a7,80001090 <verify.constprop.1+0x48>
    80001080:	00870713          	addi	a4,a4,8
    80001084:	00878793          	addi	a5,a5,8
    80001088:	fc0318e3          	bnez	t1,80001058 <verify.constprop.1+0x10>
    8000108c:	00000513          	li	a0,0
    80001090:	00008067          	ret
    80001094:	0015051b          	addiw	a0,a0,1
    80001098:	00008067          	ret

000000008000109c <sort>:
    8000109c:	81010113          	addi	sp,sp,-2032
    800010a0:	00001737          	lui	a4,0x1
    800010a4:	00251313          	slli	t1,a0,0x2
    800010a8:	7e813423          	sd	s0,2024(sp)
    800010ac:	7e913023          	sd	s1,2016(sp)
    800010b0:	7d213c23          	sd	s2,2008(sp)
    800010b4:	7d313823          	sd	s3,2000(sp)
    800010b8:	7d413423          	sd	s4,1992(sp)
    800010bc:	7d513023          	sd	s5,1984(sp)
    800010c0:	7b613c23          	sd	s6,1976(sp)
    800010c4:	7b713823          	sd	s7,1968(sp)
    800010c8:	7b813423          	sd	s8,1960(sp)
    800010cc:	7b913023          	sd	s9,1952(sp)
    800010d0:	80070713          	addi	a4,a4,-2048 # 800 <_tbss_end+0x7bc>
    800010d4:	fa010113          	addi	sp,sp,-96
    800010d8:	00010813          	mv	a6,sp
    800010dc:	00060513          	mv	a0,a2
    800010e0:	ff430f93          	addi	t6,t1,-12
    800010e4:	ffc30f13          	addi	t5,t1,-4
    800010e8:	01080e93          	addi	t4,a6,16
    800010ec:	00e80733          	add	a4,a6,a4
    800010f0:	00058893          	mv	a7,a1
    800010f4:	00000613          	li	a2,0
    800010f8:	02000e13          	li	t3,32
    800010fc:	00080793          	mv	a5,a6
    80001100:	0007b023          	sd	zero,0(a5)
    80001104:	00878793          	addi	a5,a5,8
    80001108:	fee79ce3          	bne	a5,a4,80001100 <sort+0x64>
    8000110c:	01f884b3          	add	s1,a7,t6
    80001110:	2898f263          	bleu	s1,a7,80001394 <sort+0x2f8>
    80001114:	0006041b          	sext.w	s0,a2
    80001118:	00088393          	mv	t2,a7
    8000111c:	0003a903          	lw	s2,0(t2)
    80001120:	0043a283          	lw	t0,4(t2)
    80001124:	0083a683          	lw	a3,8(t2)
    80001128:	0089593b          	srlw	s2,s2,s0
    8000112c:	0ff97913          	andi	s2,s2,255
    80001130:	00391913          	slli	s2,s2,0x3
    80001134:	01280933          	add	s2,a6,s2
    80001138:	00093983          	ld	s3,0(s2)
    8000113c:	0082d2bb          	srlw	t0,t0,s0
    80001140:	0ff2f293          	andi	t0,t0,255
    80001144:	00198993          	addi	s3,s3,1
    80001148:	00329293          	slli	t0,t0,0x3
    8000114c:	00c3a783          	lw	a5,12(t2)
    80001150:	005802b3          	add	t0,a6,t0
    80001154:	01393023          	sd	s3,0(s2)
    80001158:	0002b903          	ld	s2,0(t0)
    8000115c:	0086d6bb          	srlw	a3,a3,s0
    80001160:	0ff6f693          	andi	a3,a3,255
    80001164:	00190913          	addi	s2,s2,1
    80001168:	00369693          	slli	a3,a3,0x3
    8000116c:	0122b023          	sd	s2,0(t0)
    80001170:	00d806b3          	add	a3,a6,a3
    80001174:	0006b283          	ld	t0,0(a3)
    80001178:	0087d7bb          	srlw	a5,a5,s0
    8000117c:	0ff7f793          	andi	a5,a5,255
    80001180:	00128293          	addi	t0,t0,1
    80001184:	00379793          	slli	a5,a5,0x3
    80001188:	0056b023          	sd	t0,0(a3)
    8000118c:	00f807b3          	add	a5,a6,a5
    80001190:	0007b683          	ld	a3,0(a5)
    80001194:	01038393          	addi	t2,t2,16
    80001198:	00168693          	addi	a3,a3,1
    8000119c:	00d7b023          	sd	a3,0(a5)
    800011a0:	f693eee3          	bltu	t2,s1,8000111c <sort+0x80>
    800011a4:	fff8c693          	not	a3,a7
    800011a8:	009686b3          	add	a3,a3,s1
    800011ac:	ff06f693          	andi	a3,a3,-16
    800011b0:	01068693          	addi	a3,a3,16
    800011b4:	00d886b3          	add	a3,a7,a3
    800011b8:	006883b3          	add	t2,a7,t1
    800011bc:	0276f863          	bleu	t2,a3,800011ec <sort+0x150>
    800011c0:	0006041b          	sext.w	s0,a2
    800011c4:	0006a783          	lw	a5,0(a3)
    800011c8:	00468693          	addi	a3,a3,4
    800011cc:	0087d7bb          	srlw	a5,a5,s0
    800011d0:	0ff7f793          	andi	a5,a5,255
    800011d4:	00379793          	slli	a5,a5,0x3
    800011d8:	00f807b3          	add	a5,a6,a5
    800011dc:	0007b283          	ld	t0,0(a5)
    800011e0:	00128293          	addi	t0,t0,1
    800011e4:	0057b023          	sd	t0,0(a5)
    800011e8:	fc76eee3          	bltu	a3,t2,800011c4 <sort+0x128>
    800011ec:	00883283          	ld	t0,8(a6)
    800011f0:	00083683          	ld	a3,0(a6)
    800011f4:	000e8793          	mv	a5,t4
    800011f8:	00d282b3          	add	t0,t0,a3
    800011fc:	00583423          	sd	t0,8(a6)
    80001200:	0007b683          	ld	a3,0(a5)
    80001204:	0087b383          	ld	t2,8(a5)
    80001208:	01078793          	addi	a5,a5,16
    8000120c:	00d286b3          	add	a3,t0,a3
    80001210:	007682b3          	add	t0,a3,t2
    80001214:	fed7b823          	sd	a3,-16(a5)
    80001218:	fe57bc23          	sd	t0,-8(a5)
    8000121c:	fee792e3          	bne	a5,a4,80001200 <sort+0x164>
    80001220:	01e88933          	add	s2,a7,t5
    80001224:	00c88b93          	addi	s7,a7,12
    80001228:	0d796c63          	bltu	s2,s7,80001300 <sort+0x264>
    8000122c:	0006049b          	sext.w	s1,a2
    80001230:	00090293          	mv	t0,s2
    80001234:	0002ab03          	lw	s6,0(t0)
    80001238:	ffc2aa83          	lw	s5,-4(t0)
    8000123c:	ff82aa03          	lw	s4,-8(t0)
    80001240:	009b56bb          	srlw	a3,s6,s1
    80001244:	0ff6f693          	andi	a3,a3,255
    80001248:	00369693          	slli	a3,a3,0x3
    8000124c:	00d806b3          	add	a3,a6,a3
    80001250:	0006b403          	ld	s0,0(a3)
    80001254:	009ad7bb          	srlw	a5,s5,s1
    80001258:	0ff7f793          	andi	a5,a5,255
    8000125c:	fff40393          	addi	t2,s0,-1
    80001260:	00379793          	slli	a5,a5,0x3
    80001264:	ff42a983          	lw	s3,-12(t0)
    80001268:	00f807b3          	add	a5,a6,a5
    8000126c:	0076b023          	sd	t2,0(a3)
    80001270:	0007b383          	ld	t2,0(a5)
    80001274:	009a56bb          	srlw	a3,s4,s1
    80001278:	0ff6f693          	andi	a3,a3,255
    8000127c:	fff38c13          	addi	s8,t2,-1
    80001280:	00369693          	slli	a3,a3,0x3
    80001284:	0187b023          	sd	s8,0(a5)
    80001288:	00d806b3          	add	a3,a6,a3
    8000128c:	0006bc03          	ld	s8,0(a3)
    80001290:	0099d7bb          	srlw	a5,s3,s1
    80001294:	0ff7f793          	andi	a5,a5,255
    80001298:	fffc0c93          	addi	s9,s8,-1
    8000129c:	00379793          	slli	a5,a5,0x3
    800012a0:	0196b023          	sd	s9,0(a3)
    800012a4:	00f807b3          	add	a5,a6,a5
    800012a8:	0007b683          	ld	a3,0(a5)
    800012ac:	00241413          	slli	s0,s0,0x2
    800012b0:	00850433          	add	s0,a0,s0
    800012b4:	fff68c93          	addi	s9,a3,-1
    800012b8:	0197b023          	sd	s9,0(a5)
    800012bc:	00239393          	slli	t2,t2,0x2
    800012c0:	ff642e23          	sw	s6,-4(s0)
    800012c4:	007503b3          	add	t2,a0,t2
    800012c8:	002c1c13          	slli	s8,s8,0x2
    800012cc:	ff53ae23          	sw	s5,-4(t2)
    800012d0:	01850c33          	add	s8,a0,s8
    800012d4:	00269693          	slli	a3,a3,0x2
    800012d8:	ff4c2e23          	sw	s4,-4(s8)
    800012dc:	00d506b3          	add	a3,a0,a3
    800012e0:	ff36ae23          	sw	s3,-4(a3)
    800012e4:	ff028293          	addi	t0,t0,-16
    800012e8:	f572f6e3          	bleu	s7,t0,80001234 <sort+0x198>
    800012ec:	411907b3          	sub	a5,s2,a7
    800012f0:	ff478793          	addi	a5,a5,-12
    800012f4:	fff7c793          	not	a5,a5
    800012f8:	ff07f793          	andi	a5,a5,-16
    800012fc:	00f90933          	add	s2,s2,a5
    80001300:	03196e63          	bltu	s2,a7,8000133c <sort+0x2a0>
    80001304:	0006041b          	sext.w	s0,a2
    80001308:	00092383          	lw	t2,0(s2)
    8000130c:	ffc90913          	addi	s2,s2,-4
    80001310:	0083d7bb          	srlw	a5,t2,s0
    80001314:	0ff7f793          	andi	a5,a5,255
    80001318:	00379793          	slli	a5,a5,0x3
    8000131c:	00f807b3          	add	a5,a6,a5
    80001320:	0007b683          	ld	a3,0(a5)
    80001324:	fff68693          	addi	a3,a3,-1
    80001328:	00269293          	slli	t0,a3,0x2
    8000132c:	00d7b023          	sd	a3,0(a5)
    80001330:	005507b3          	add	a5,a0,t0
    80001334:	0077a023          	sw	t2,0(a5)
    80001338:	fd1978e3          	bleu	a7,s2,80001308 <sort+0x26c>
    8000133c:	00860613          	addi	a2,a2,8
    80001340:	01c60a63          	beq	a2,t3,80001354 <sort+0x2b8>
    80001344:	00088793          	mv	a5,a7
    80001348:	00050893          	mv	a7,a0
    8000134c:	00078513          	mv	a0,a5
    80001350:	dadff06f          	j	800010fc <sort+0x60>
    80001354:	04a58463          	beq	a1,a0,8000139c <sort+0x300>
    80001358:	06010113          	addi	sp,sp,96
    8000135c:	7e813403          	ld	s0,2024(sp)
    80001360:	7e013483          	ld	s1,2016(sp)
    80001364:	7d813903          	ld	s2,2008(sp)
    80001368:	7d013983          	ld	s3,2000(sp)
    8000136c:	7c813a03          	ld	s4,1992(sp)
    80001370:	7c013a83          	ld	s5,1984(sp)
    80001374:	7b813b03          	ld	s6,1976(sp)
    80001378:	7b013b83          	ld	s7,1968(sp)
    8000137c:	7a813c03          	ld	s8,1960(sp)
    80001380:	7a013c83          	ld	s9,1952(sp)
    80001384:	00030613          	mv	a2,t1
    80001388:	00088593          	mv	a1,a7
    8000138c:	7f010113          	addi	sp,sp,2032
    80001390:	7e80006f          	j	80001b78 <memcpy>
    80001394:	00088693          	mv	a3,a7
    80001398:	e21ff06f          	j	800011b8 <sort+0x11c>
    8000139c:	06010113          	addi	sp,sp,96
    800013a0:	7e813403          	ld	s0,2024(sp)
    800013a4:	7e013483          	ld	s1,2016(sp)
    800013a8:	7d813903          	ld	s2,2008(sp)
    800013ac:	7d013983          	ld	s3,2000(sp)
    800013b0:	7c813a03          	ld	s4,1992(sp)
    800013b4:	7c013a83          	ld	s5,1984(sp)
    800013b8:	7b813b03          	ld	s6,1976(sp)
    800013bc:	7b013b83          	ld	s7,1968(sp)
    800013c0:	7a813c03          	ld	s8,1960(sp)
    800013c4:	7a013c83          	ld	s9,1952(sp)
    800013c8:	7f010113          	addi	sp,sp,2032
    800013cc:	00008067          	ret

00000000800013d0 <vprintfmt>:
    800013d0:	ea010113          	addi	sp,sp,-352
    800013d4:	14813823          	sd	s0,336(sp)
    800013d8:	14913423          	sd	s1,328(sp)
    800013dc:	15213023          	sd	s2,320(sp)
    800013e0:	13413823          	sd	s4,304(sp)
    800013e4:	13513423          	sd	s5,296(sp)
    800013e8:	13613023          	sd	s6,288(sp)
    800013ec:	14113c23          	sd	ra,344(sp)
    800013f0:	13313c23          	sd	s3,312(sp)
    800013f4:	11713c23          	sd	s7,280(sp)
    800013f8:	11813823          	sd	s8,272(sp)
    800013fc:	11913423          	sd	s9,264(sp)
    80001400:	00050913          	mv	s2,a0
    80001404:	00058493          	mv	s1,a1
    80001408:	00060413          	mv	s0,a2
    8000140c:	00068b13          	mv	s6,a3
    80001410:	02500a13          	li	s4,37
    80001414:	00001a97          	auipc	s5,0x1
    80001418:	ae8a8a93          	addi	s5,s5,-1304 # 80001efc <main+0xb0>
    8000141c:	0140006f          	j	80001430 <vprintfmt+0x60>
    80001420:	06050063          	beqz	a0,80001480 <vprintfmt+0xb0>
    80001424:	00048593          	mv	a1,s1
    80001428:	00140413          	addi	s0,s0,1
    8000142c:	000900e7          	jalr	s2
    80001430:	00044503          	lbu	a0,0(s0)
    80001434:	ff4516e3          	bne	a0,s4,80001420 <vprintfmt+0x50>
    80001438:	00144683          	lbu	a3,1(s0)
    8000143c:	00140c93          	addi	s9,s0,1
    80001440:	000c8713          	mv	a4,s9
    80001444:	02000b93          	li	s7,32
    80001448:	fff00993          	li	s3,-1
    8000144c:	fff00c13          	li	s8,-1
    80001450:	00000593          	li	a1,0
    80001454:	05500613          	li	a2,85
    80001458:	00900513          	li	a0,9
    8000145c:	fdd6879b          	addiw	a5,a3,-35
    80001460:	0ff7f793          	andi	a5,a5,255
    80001464:	00170413          	addi	s0,a4,1
    80001468:	2af66863          	bltu	a2,a5,80001718 <vprintfmt+0x348>
    8000146c:	00279793          	slli	a5,a5,0x2
    80001470:	015787b3          	add	a5,a5,s5
    80001474:	0007a783          	lw	a5,0(a5)
    80001478:	015787b3          	add	a5,a5,s5
    8000147c:	00078067          	jr	a5
    80001480:	15813083          	ld	ra,344(sp)
    80001484:	15013403          	ld	s0,336(sp)
    80001488:	14813483          	ld	s1,328(sp)
    8000148c:	14013903          	ld	s2,320(sp)
    80001490:	13813983          	ld	s3,312(sp)
    80001494:	13013a03          	ld	s4,304(sp)
    80001498:	12813a83          	ld	s5,296(sp)
    8000149c:	12013b03          	ld	s6,288(sp)
    800014a0:	11813b83          	ld	s7,280(sp)
    800014a4:	11013c03          	ld	s8,272(sp)
    800014a8:	10813c83          	ld	s9,264(sp)
    800014ac:	16010113          	addi	sp,sp,352
    800014b0:	00008067          	ret
    800014b4:	00800713          	li	a4,8
    800014b8:	00100793          	li	a5,1
    800014bc:	008b0693          	addi	a3,s6,8
    800014c0:	12b7d863          	ble	a1,a5,800015f0 <vprintfmt+0x220>
    800014c4:	000b3783          	ld	a5,0(s6)
    800014c8:	00068b13          	mv	s6,a3
    800014cc:	02e7f6b3          	remu	a3,a5,a4
    800014d0:	000b8b9b          	sext.w	s7,s7
    800014d4:	00410613          	addi	a2,sp,4
    800014d8:	00100993          	li	s3,1
    800014dc:	00d12023          	sw	a3,0(sp)
    800014e0:	00e7f663          	bleu	a4,a5,800014ec <vprintfmt+0x11c>
    800014e4:	2480006f          	j	8000172c <vprintfmt+0x35c>
    800014e8:	000c8993          	mv	s3,s9
    800014ec:	02e7d7b3          	divu	a5,a5,a4
    800014f0:	00460613          	addi	a2,a2,4
    800014f4:	00198c9b          	addiw	s9,s3,1
    800014f8:	02e7f6b3          	remu	a3,a5,a4
    800014fc:	fed62e23          	sw	a3,-4(a2)
    80001500:	fee7f4e3          	bleu	a4,a5,800014e8 <vprintfmt+0x118>
    80001504:	018cde63          	ble	s8,s9,80001520 <vprintfmt+0x150>
    80001508:	000c0c1b          	sext.w	s8,s8
    8000150c:	fffc0c1b          	addiw	s8,s8,-1
    80001510:	00048593          	mv	a1,s1
    80001514:	000b8513          	mv	a0,s7
    80001518:	000900e7          	jalr	s2
    8000151c:	ff8cc8e3          	blt	s9,s8,8000150c <vprintfmt+0x13c>
    80001520:	00299793          	slli	a5,s3,0x2
    80001524:	10010713          	addi	a4,sp,256
    80001528:	00f707b3          	add	a5,a4,a5
    8000152c:	f007a683          	lw	a3,-256(a5)
    80001530:	fff98b9b          	addiw	s7,s3,-1
    80001534:	002b9b93          	slli	s7,s7,0x2
    80001538:	01710bb3          	add	s7,sp,s7
    8000153c:	00900c13          	li	s8,9
    80001540:	0100006f          	j	80001550 <vprintfmt+0x180>
    80001544:	000ba683          	lw	a3,0(s7)
    80001548:	fff98993          	addi	s3,s3,-1
    8000154c:	ffcb8b93          	addi	s7,s7,-4
    80001550:	03000513          	li	a0,48
    80001554:	00dc7463          	bleu	a3,s8,8000155c <vprintfmt+0x18c>
    80001558:	05700513          	li	a0,87
    8000155c:	00048593          	mv	a1,s1
    80001560:	00d5053b          	addw	a0,a0,a3
    80001564:	000900e7          	jalr	s2
    80001568:	0009879b          	sext.w	a5,s3
    8000156c:	fcf04ce3          	bgtz	a5,80001544 <vprintfmt+0x174>
    80001570:	ec1ff06f          	j	80001430 <vprintfmt+0x60>
    80001574:	03000513          	li	a0,48
    80001578:	00048593          	mv	a1,s1
    8000157c:	000900e7          	jalr	s2
    80001580:	00048593          	mv	a1,s1
    80001584:	07800513          	li	a0,120
    80001588:	000900e7          	jalr	s2
    8000158c:	008b0693          	addi	a3,s6,8
    80001590:	01000713          	li	a4,16
    80001594:	f31ff06f          	j	800014c4 <vprintfmt+0xf4>
    80001598:	000b3c83          	ld	s9,0(s6)
    8000159c:	008b0b13          	addi	s6,s6,8
    800015a0:	200c8c63          	beqz	s9,800017b8 <vprintfmt+0x3e8>
    800015a4:	1b805463          	blez	s8,8000174c <vprintfmt+0x37c>
    800015a8:	02d00793          	li	a5,45
    800015ac:	1efb8e63          	beq	s7,a5,800017a8 <vprintfmt+0x3d8>
    800015b0:	000c059b          	sext.w	a1,s8
    800015b4:	20098e63          	beqz	s3,800017d0 <vprintfmt+0x400>
    800015b8:	000cc783          	lbu	a5,0(s9)
    800015bc:	20078a63          	beqz	a5,800017d0 <vprintfmt+0x400>
    800015c0:	001c8793          	addi	a5,s9,1
    800015c4:	013c8633          	add	a2,s9,s3
    800015c8:	24f60463          	beq	a2,a5,80001810 <vprintfmt+0x440>
    800015cc:	00178713          	addi	a4,a5,1
    800015d0:	fff74683          	lbu	a3,-1(a4)
    800015d4:	16068663          	beqz	a3,80001740 <vprintfmt+0x370>
    800015d8:	00070793          	mv	a5,a4
    800015dc:	fedff06f          	j	800015c8 <vprintfmt+0x1f8>
    800015e0:	00100793          	li	a5,1
    800015e4:	00a00713          	li	a4,10
    800015e8:	008b0693          	addi	a3,s6,8
    800015ec:	ecb7cce3          	blt	a5,a1,800014c4 <vprintfmt+0xf4>
    800015f0:	ec059ae3          	bnez	a1,800014c4 <vprintfmt+0xf4>
    800015f4:	000b6783          	lwu	a5,0(s6)
    800015f8:	00068b13          	mv	s6,a3
    800015fc:	ed1ff06f          	j	800014cc <vprintfmt+0xfc>
    80001600:	00174683          	lbu	a3,1(a4)
    80001604:	00040713          	mv	a4,s0
    80001608:	e55ff06f          	j	8000145c <vprintfmt+0x8c>
    8000160c:	00048593          	mv	a1,s1
    80001610:	02500513          	li	a0,37
    80001614:	000900e7          	jalr	s2
    80001618:	e19ff06f          	j	80001430 <vprintfmt+0x60>
    8000161c:	01000713          	li	a4,16
    80001620:	e99ff06f          	j	800014b8 <vprintfmt+0xe8>
    80001624:	000b2983          	lw	s3,0(s6)
    80001628:	00174683          	lbu	a3,1(a4)
    8000162c:	008b0b13          	addi	s6,s6,8
    80001630:	00040713          	mv	a4,s0
    80001634:	e20c54e3          	bgez	s8,8000145c <vprintfmt+0x8c>
    80001638:	00098c13          	mv	s8,s3
    8000163c:	fff00993          	li	s3,-1
    80001640:	e1dff06f          	j	8000145c <vprintfmt+0x8c>
    80001644:	00174683          	lbu	a3,1(a4)
    80001648:	02d00b93          	li	s7,45
    8000164c:	00040713          	mv	a4,s0
    80001650:	e0dff06f          	j	8000145c <vprintfmt+0x8c>
    80001654:	fffc4793          	not	a5,s8
    80001658:	43f7d793          	srai	a5,a5,0x3f
    8000165c:	00fc7c33          	and	s8,s8,a5
    80001660:	00174683          	lbu	a3,1(a4)
    80001664:	000c0c1b          	sext.w	s8,s8
    80001668:	00040713          	mv	a4,s0
    8000166c:	df1ff06f          	j	8000145c <vprintfmt+0x8c>
    80001670:	00174683          	lbu	a3,1(a4)
    80001674:	03000b93          	li	s7,48
    80001678:	00040713          	mv	a4,s0
    8000167c:	de1ff06f          	j	8000145c <vprintfmt+0x8c>
    80001680:	fd06899b          	addiw	s3,a3,-48
    80001684:	00174683          	lbu	a3,1(a4)
    80001688:	00040713          	mv	a4,s0
    8000168c:	fd06879b          	addiw	a5,a3,-48
    80001690:	0006881b          	sext.w	a6,a3
    80001694:	faf560e3          	bltu	a0,a5,80001634 <vprintfmt+0x264>
    80001698:	00170713          	addi	a4,a4,1
    8000169c:	0029979b          	slliw	a5,s3,0x2
    800016a0:	00074683          	lbu	a3,0(a4)
    800016a4:	013789bb          	addw	s3,a5,s3
    800016a8:	0019999b          	slliw	s3,s3,0x1
    800016ac:	010989bb          	addw	s3,s3,a6
    800016b0:	fd06879b          	addiw	a5,a3,-48
    800016b4:	fd09899b          	addiw	s3,s3,-48
    800016b8:	0006881b          	sext.w	a6,a3
    800016bc:	fcf57ee3          	bleu	a5,a0,80001698 <vprintfmt+0x2c8>
    800016c0:	f75ff06f          	j	80001634 <vprintfmt+0x264>
    800016c4:	000b2503          	lw	a0,0(s6)
    800016c8:	00048593          	mv	a1,s1
    800016cc:	008b0b13          	addi	s6,s6,8
    800016d0:	000900e7          	jalr	s2
    800016d4:	d5dff06f          	j	80001430 <vprintfmt+0x60>
    800016d8:	00100793          	li	a5,1
    800016dc:	008b0c93          	addi	s9,s6,8
    800016e0:	0ab7de63          	ble	a1,a5,8000179c <vprintfmt+0x3cc>
    800016e4:	000b3983          	ld	s3,0(s6)
    800016e8:	1009d263          	bgez	s3,800017ec <vprintfmt+0x41c>
    800016ec:	00048593          	mv	a1,s1
    800016f0:	02d00513          	li	a0,45
    800016f4:	000900e7          	jalr	s2
    800016f8:	000c8b13          	mv	s6,s9
    800016fc:	413007b3          	neg	a5,s3
    80001700:	00a00713          	li	a4,10
    80001704:	dc9ff06f          	j	800014cc <vprintfmt+0xfc>
    80001708:	00174683          	lbu	a3,1(a4)
    8000170c:	0015859b          	addiw	a1,a1,1
    80001710:	00040713          	mv	a4,s0
    80001714:	d49ff06f          	j	8000145c <vprintfmt+0x8c>
    80001718:	00048593          	mv	a1,s1
    8000171c:	02500513          	li	a0,37
    80001720:	000900e7          	jalr	s2
    80001724:	000c8413          	mv	s0,s9
    80001728:	d09ff06f          	j	80001430 <vprintfmt+0x60>
    8000172c:	00100793          	li	a5,1
    80001730:	00000993          	li	s3,0
    80001734:	00100c93          	li	s9,1
    80001738:	dd87c8e3          	blt	a5,s8,80001508 <vprintfmt+0x138>
    8000173c:	df5ff06f          	j	80001530 <vprintfmt+0x160>
    80001740:	41978c33          	sub	s8,a5,s9
    80001744:	41858c3b          	subw	s8,a1,s8
    80001748:	09804463          	bgtz	s8,800017d0 <vprintfmt+0x400>
    8000174c:	000cc503          	lbu	a0,0(s9)
    80001750:	ce0500e3          	beqz	a0,80001430 <vprintfmt+0x60>
    80001754:	fff00b93          	li	s7,-1
    80001758:	0209dc63          	bgez	s3,80001790 <vprintfmt+0x3c0>
    8000175c:	00048593          	mv	a1,s1
    80001760:	001c8c93          	addi	s9,s9,1
    80001764:	000900e7          	jalr	s2
    80001768:	000cc503          	lbu	a0,0(s9)
    8000176c:	fffc0c1b          	addiw	s8,s8,-1
    80001770:	fe0514e3          	bnez	a0,80001758 <vprintfmt+0x388>
    80001774:	cb805ee3          	blez	s8,80001430 <vprintfmt+0x60>
    80001778:	fffc0c1b          	addiw	s8,s8,-1
    8000177c:	00048593          	mv	a1,s1
    80001780:	02000513          	li	a0,32
    80001784:	000900e7          	jalr	s2
    80001788:	fe0c18e3          	bnez	s8,80001778 <vprintfmt+0x3a8>
    8000178c:	ca5ff06f          	j	80001430 <vprintfmt+0x60>
    80001790:	fff9899b          	addiw	s3,s3,-1
    80001794:	fd7994e3          	bne	s3,s7,8000175c <vprintfmt+0x38c>
    80001798:	fddff06f          	j	80001774 <vprintfmt+0x3a4>
    8000179c:	f40594e3          	bnez	a1,800016e4 <vprintfmt+0x314>
    800017a0:	000b2983          	lw	s3,0(s6)
    800017a4:	f45ff06f          	j	800016e8 <vprintfmt+0x318>
    800017a8:	000cc503          	lbu	a0,0(s9)
    800017ac:	fc0506e3          	beqz	a0,80001778 <vprintfmt+0x3a8>
    800017b0:	fff00b93          	li	s7,-1
    800017b4:	fa5ff06f          	j	80001758 <vprintfmt+0x388>
    800017b8:	05805263          	blez	s8,800017fc <vprintfmt+0x42c>
    800017bc:	02d00793          	li	a5,45
    800017c0:	02fb8e63          	beq	s7,a5,800017fc <vprintfmt+0x42c>
    800017c4:	00001c97          	auipc	s9,0x1
    800017c8:	894c8c93          	addi	s9,s9,-1900 # 80002058 <main+0x20c>
    800017cc:	de5ff06f          	j	800015b0 <vprintfmt+0x1e0>
    800017d0:	000b8b9b          	sext.w	s7,s7
    800017d4:	fffc0c1b          	addiw	s8,s8,-1
    800017d8:	00048593          	mv	a1,s1
    800017dc:	000b8513          	mv	a0,s7
    800017e0:	000900e7          	jalr	s2
    800017e4:	fe0c18e3          	bnez	s8,800017d4 <vprintfmt+0x404>
    800017e8:	f65ff06f          	j	8000174c <vprintfmt+0x37c>
    800017ec:	00098793          	mv	a5,s3
    800017f0:	000c8b13          	mv	s6,s9
    800017f4:	00a00713          	li	a4,10
    800017f8:	cd5ff06f          	j	800014cc <vprintfmt+0xfc>
    800017fc:	00001c97          	auipc	s9,0x1
    80001800:	85cc8c93          	addi	s9,s9,-1956 # 80002058 <main+0x20c>
    80001804:	02800513          	li	a0,40
    80001808:	fff00b93          	li	s7,-1
    8000180c:	f4dff06f          	j	80001758 <vprintfmt+0x388>
    80001810:	41960c33          	sub	s8,a2,s9
    80001814:	41858c3b          	subw	s8,a1,s8
    80001818:	fb804ce3          	bgtz	s8,800017d0 <vprintfmt+0x400>
    8000181c:	f31ff06f          	j	8000174c <vprintfmt+0x37c>

0000000080001820 <sprintf_putch.2924>:
    80001820:	0005b783          	ld	a5,0(a1)
    80001824:	00a78023          	sb	a0,0(a5)
    80001828:	0005b783          	ld	a5,0(a1)
    8000182c:	00178793          	addi	a5,a5,1
    80001830:	00f5b023          	sd	a5,0(a1)
    80001834:	00008067          	ret

0000000080001838 <putchar>:
    80001838:	04022803          	lw	a6,64(tp) # 40 <buflen.2810>
    8000183c:	00020793          	mv	a5,tp
    80001840:	010787b3          	add	a5,a5,a6
    80001844:	f8010113          	addi	sp,sp,-128
    80001848:	0018069b          	addiw	a3,a6,1
    8000184c:	04d22023          	sw	a3,64(tp) # 40 <buflen.2810>
    80001850:	00a78023          	sb	a0,0(a5)
    80001854:	03f10713          	addi	a4,sp,63
    80001858:	00a00793          	li	a5,10
    8000185c:	fc077713          	andi	a4,a4,-64
    80001860:	00f50c63          	beq	a0,a5,80001878 <putchar+0x40>
    80001864:	04000793          	li	a5,64
    80001868:	00f68863          	beq	a3,a5,80001878 <putchar+0x40>
    8000186c:	00000513          	li	a0,0
    80001870:	08010113          	addi	sp,sp,128
    80001874:	00008067          	ret
    80001878:	04000793          	li	a5,64
    8000187c:	00f73023          	sd	a5,0(a4)
    80001880:	00100793          	li	a5,1
    80001884:	00f73423          	sd	a5,8(a4)
    80001888:	00020613          	mv	a2,tp
    8000188c:	00c73823          	sd	a2,16(a4)
    80001890:	00d73c23          	sd	a3,24(a4)
    80001894:	0ff0000f          	fence
    80001898:	fffff797          	auipc	a5,0xfffff
    8000189c:	76e7b423          	sd	a4,1896(a5) # 80001000 <tohost>
    800018a0:	fffff697          	auipc	a3,0xfffff
    800018a4:	7a068693          	addi	a3,a3,1952 # 80001040 <fromhost>
    800018a8:	0006b783          	ld	a5,0(a3)
    800018ac:	fe078ee3          	beqz	a5,800018a8 <putchar+0x70>
    800018b0:	fffff797          	auipc	a5,0xfffff
    800018b4:	7807b823          	sd	zero,1936(a5) # 80001040 <fromhost>
    800018b8:	0ff0000f          	fence
    800018bc:	04022023          	sw	zero,64(tp) # 40 <buflen.2810>
    800018c0:	00073783          	ld	a5,0(a4)
    800018c4:	00000513          	li	a0,0
    800018c8:	08010113          	addi	sp,sp,128
    800018cc:	00008067          	ret

00000000800018d0 <setStats>:
    800018d0:	00050c63          	beqz	a0,800018e8 <setStats+0x18>
    800018d4:	40100793          	li	a5,1025
    800018d8:	32379073          	csrw	mhpmevent3,a5
    800018dc:	000027b7          	lui	a5,0x2
    800018e0:	0017879b          	addiw	a5,a5,1
    800018e4:	32479073          	csrw	mhpmevent4,a5
    800018e8:	b00027f3          	csrr	a5,mcycle
    800018ec:	00006717          	auipc	a4,0x6
    800018f0:	7d470713          	addi	a4,a4,2004 # 800080c0 <counters>
    800018f4:	00051e63          	bnez	a0,80001910 <setStats+0x40>
    800018f8:	00073683          	ld	a3,0(a4)
    800018fc:	00000617          	auipc	a2,0x0
    80001900:	76460613          	addi	a2,a2,1892 # 80002060 <main+0x214>
    80001904:	00006597          	auipc	a1,0x6
    80001908:	7cc5be23          	sd	a2,2012(a1) # 800080e0 <counter_names>
    8000190c:	40d787b3          	sub	a5,a5,a3
    80001910:	00006697          	auipc	a3,0x6
    80001914:	7af6b823          	sd	a5,1968(a3) # 800080c0 <counters>
    80001918:	b02027f3          	csrr	a5,minstret
    8000191c:	00051e63          	bnez	a0,80001938 <setStats+0x68>
    80001920:	00873683          	ld	a3,8(a4)
    80001924:	00000617          	auipc	a2,0x0
    80001928:	74460613          	addi	a2,a2,1860 # 80002068 <main+0x21c>
    8000192c:	00006597          	auipc	a1,0x6
    80001930:	7ac5be23          	sd	a2,1980(a1) # 800080e8 <counter_names+0x8>
    80001934:	40d787b3          	sub	a5,a5,a3
    80001938:	00006697          	auipc	a3,0x6
    8000193c:	78f6b823          	sd	a5,1936(a3) # 800080c8 <counters+0x8>
    80001940:	b03027f3          	csrr	a5,mhpmcounter3
    80001944:	00051e63          	bnez	a0,80001960 <setStats+0x90>
    80001948:	01073683          	ld	a3,16(a4)
    8000194c:	00000617          	auipc	a2,0x0
    80001950:	72c60613          	addi	a2,a2,1836 # 80002078 <main+0x22c>
    80001954:	00006597          	auipc	a1,0x6
    80001958:	78c5be23          	sd	a2,1948(a1) # 800080f0 <counter_names+0x10>
    8000195c:	40d787b3          	sub	a5,a5,a3
    80001960:	00006697          	auipc	a3,0x6
    80001964:	76f6b823          	sd	a5,1904(a3) # 800080d0 <counters+0x10>
    80001968:	b04027f3          	csrr	a5,mhpmcounter4
    8000196c:	00051e63          	bnez	a0,80001988 <setStats+0xb8>
    80001970:	01873703          	ld	a4,24(a4)
    80001974:	00000697          	auipc	a3,0x0
    80001978:	71468693          	addi	a3,a3,1812 # 80002088 <main+0x23c>
    8000197c:	00006617          	auipc	a2,0x6
    80001980:	76d63e23          	sd	a3,1916(a2) # 800080f8 <counter_names+0x18>
    80001984:	40e787b3          	sub	a5,a5,a4
    80001988:	00006717          	auipc	a4,0x6
    8000198c:	74f73823          	sd	a5,1872(a4) # 800080d8 <counters+0x18>
    80001990:	00008067          	ret

0000000080001994 <tohost_exit>:
    80001994:	00151793          	slli	a5,a0,0x1
    80001998:	0017e793          	ori	a5,a5,1
    8000199c:	fffff717          	auipc	a4,0xfffff
    800019a0:	66f73223          	sd	a5,1636(a4) # 80001000 <tohost>
    800019a4:	0000006f          	j	800019a4 <tohost_exit+0x10>

00000000800019a8 <handle_trap>:
    800019a8:	000017b7          	lui	a5,0x1
    800019ac:	a7378793          	addi	a5,a5,-1421 # a73 <_tbss_end+0xa2f>
    800019b0:	fffff717          	auipc	a4,0xfffff
    800019b4:	64f73823          	sd	a5,1616(a4) # 80001000 <tohost>
    800019b8:	0000006f          	j	800019b8 <handle_trap+0x10>

00000000800019bc <exit>:
    800019bc:	ff010113          	addi	sp,sp,-16
    800019c0:	00113423          	sd	ra,8(sp)
    800019c4:	fd1ff0ef          	jal	ra,80001994 <tohost_exit>

00000000800019c8 <abort>:
    800019c8:	10d00793          	li	a5,269
    800019cc:	fffff717          	auipc	a4,0xfffff
    800019d0:	62f73a23          	sd	a5,1588(a4) # 80001000 <tohost>
    800019d4:	0000006f          	j	800019d4 <abort+0xc>

00000000800019d8 <printstr>:
    800019d8:	00054783          	lbu	a5,0(a0)
    800019dc:	f8010113          	addi	sp,sp,-128
    800019e0:	03f10713          	addi	a4,sp,63
    800019e4:	00050693          	mv	a3,a0
    800019e8:	fc077713          	andi	a4,a4,-64
    800019ec:	06078263          	beqz	a5,80001a50 <printstr+0x78>
    800019f0:	00050613          	mv	a2,a0
    800019f4:	00150513          	addi	a0,a0,1
    800019f8:	00054783          	lbu	a5,0(a0)
    800019fc:	fe079ce3          	bnez	a5,800019f4 <printstr+0x1c>
    80001a00:	40c50533          	sub	a0,a0,a2
    80001a04:	04000793          	li	a5,64
    80001a08:	00f73023          	sd	a5,0(a4)
    80001a0c:	00100793          	li	a5,1
    80001a10:	00f73423          	sd	a5,8(a4)
    80001a14:	00d73823          	sd	a3,16(a4)
    80001a18:	00a73c23          	sd	a0,24(a4)
    80001a1c:	0ff0000f          	fence
    80001a20:	fffff797          	auipc	a5,0xfffff
    80001a24:	5ee7b023          	sd	a4,1504(a5) # 80001000 <tohost>
    80001a28:	fffff697          	auipc	a3,0xfffff
    80001a2c:	61868693          	addi	a3,a3,1560 # 80001040 <fromhost>
    80001a30:	0006b783          	ld	a5,0(a3)
    80001a34:	fe078ee3          	beqz	a5,80001a30 <printstr+0x58>
    80001a38:	fffff797          	auipc	a5,0xfffff
    80001a3c:	6007b423          	sd	zero,1544(a5) # 80001040 <fromhost>
    80001a40:	0ff0000f          	fence
    80001a44:	00073783          	ld	a5,0(a4)
    80001a48:	08010113          	addi	sp,sp,128
    80001a4c:	00008067          	ret
    80001a50:	00000513          	li	a0,0
    80001a54:	fb1ff06f          	j	80001a04 <printstr+0x2c>

0000000080001a58 <thread_entry>:
    80001a58:	00050463          	beqz	a0,80001a60 <thread_entry+0x8>
    80001a5c:	0000006f          	j	80001a5c <thread_entry+0x4>
    80001a60:	00008067          	ret

0000000080001a64 <printhex>:
    80001a64:	fd010113          	addi	sp,sp,-48
    80001a68:	02113423          	sd	ra,40(sp)
    80001a6c:	01710713          	addi	a4,sp,23
    80001a70:	00710813          	addi	a6,sp,7
    80001a74:	00900593          	li	a1,9
    80001a78:	00f57793          	andi	a5,a0,15
    80001a7c:	03000613          	li	a2,48
    80001a80:	0ff7f693          	andi	a3,a5,255
    80001a84:	00f5f463          	bleu	a5,a1,80001a8c <printhex+0x28>
    80001a88:	05700613          	li	a2,87
    80001a8c:	00c687bb          	addw	a5,a3,a2
    80001a90:	00f70023          	sb	a5,0(a4)
    80001a94:	fff70713          	addi	a4,a4,-1
    80001a98:	00455513          	srli	a0,a0,0x4
    80001a9c:	fce81ee3          	bne	a6,a4,80001a78 <printhex+0x14>
    80001aa0:	00810513          	addi	a0,sp,8
    80001aa4:	00010c23          	sb	zero,24(sp)
    80001aa8:	f31ff0ef          	jal	ra,800019d8 <printstr>
    80001aac:	02813083          	ld	ra,40(sp)
    80001ab0:	03010113          	addi	sp,sp,48
    80001ab4:	00008067          	ret

0000000080001ab8 <printf>:
    80001ab8:	fa010113          	addi	sp,sp,-96
    80001abc:	02810313          	addi	t1,sp,40
    80001ac0:	02b13423          	sd	a1,40(sp)
    80001ac4:	02c13823          	sd	a2,48(sp)
    80001ac8:	02d13c23          	sd	a3,56(sp)
    80001acc:	00050613          	mv	a2,a0
    80001ad0:	00030693          	mv	a3,t1
    80001ad4:	00000517          	auipc	a0,0x0
    80001ad8:	d6450513          	addi	a0,a0,-668 # 80001838 <putchar>
    80001adc:	00000593          	li	a1,0
    80001ae0:	00113c23          	sd	ra,24(sp)
    80001ae4:	04e13023          	sd	a4,64(sp)
    80001ae8:	04f13423          	sd	a5,72(sp)
    80001aec:	05013823          	sd	a6,80(sp)
    80001af0:	05113c23          	sd	a7,88(sp)
    80001af4:	00613423          	sd	t1,8(sp)
    80001af8:	8d9ff0ef          	jal	ra,800013d0 <vprintfmt>
    80001afc:	01813083          	ld	ra,24(sp)
    80001b00:	00000513          	li	a0,0
    80001b04:	06010113          	addi	sp,sp,96
    80001b08:	00008067          	ret

0000000080001b0c <sprintf>:
    80001b0c:	fa010113          	addi	sp,sp,-96
    80001b10:	03010313          	addi	t1,sp,48
    80001b14:	02813023          	sd	s0,32(sp)
    80001b18:	00a13423          	sd	a0,8(sp)
    80001b1c:	02c13823          	sd	a2,48(sp)
    80001b20:	02d13c23          	sd	a3,56(sp)
    80001b24:	00050413          	mv	s0,a0
    80001b28:	00058613          	mv	a2,a1
    80001b2c:	00000517          	auipc	a0,0x0
    80001b30:	cf450513          	addi	a0,a0,-780 # 80001820 <sprintf_putch.2924>
    80001b34:	00810593          	addi	a1,sp,8
    80001b38:	00030693          	mv	a3,t1
    80001b3c:	02113423          	sd	ra,40(sp)
    80001b40:	04f13423          	sd	a5,72(sp)
    80001b44:	04e13023          	sd	a4,64(sp)
    80001b48:	05013823          	sd	a6,80(sp)
    80001b4c:	05113c23          	sd	a7,88(sp)
    80001b50:	00613c23          	sd	t1,24(sp)
    80001b54:	87dff0ef          	jal	ra,800013d0 <vprintfmt>
    80001b58:	00813783          	ld	a5,8(sp)
    80001b5c:	00078023          	sb	zero,0(a5)
    80001b60:	00813503          	ld	a0,8(sp)
    80001b64:	02813083          	ld	ra,40(sp)
    80001b68:	4085053b          	subw	a0,a0,s0
    80001b6c:	02013403          	ld	s0,32(sp)
    80001b70:	06010113          	addi	sp,sp,96
    80001b74:	00008067          	ret

0000000080001b78 <memcpy>:
    80001b78:	00c5e7b3          	or	a5,a1,a2
    80001b7c:	00f567b3          	or	a5,a0,a5
    80001b80:	0077f793          	andi	a5,a5,7
    80001b84:	00c506b3          	add	a3,a0,a2
    80001b88:	02078463          	beqz	a5,80001bb0 <memcpy+0x38>
    80001b8c:	00c58633          	add	a2,a1,a2
    80001b90:	00050793          	mv	a5,a0
    80001b94:	02d57e63          	bleu	a3,a0,80001bd0 <memcpy+0x58>
    80001b98:	00158593          	addi	a1,a1,1
    80001b9c:	fff5c703          	lbu	a4,-1(a1)
    80001ba0:	00178793          	addi	a5,a5,1
    80001ba4:	fee78fa3          	sb	a4,-1(a5)
    80001ba8:	feb618e3          	bne	a2,a1,80001b98 <memcpy+0x20>
    80001bac:	00008067          	ret
    80001bb0:	fed57ee3          	bleu	a3,a0,80001bac <memcpy+0x34>
    80001bb4:	00050793          	mv	a5,a0
    80001bb8:	00858593          	addi	a1,a1,8
    80001bbc:	ff85b703          	ld	a4,-8(a1)
    80001bc0:	00878793          	addi	a5,a5,8
    80001bc4:	fee7bc23          	sd	a4,-8(a5)
    80001bc8:	fed7e8e3          	bltu	a5,a3,80001bb8 <memcpy+0x40>
    80001bcc:	00008067          	ret
    80001bd0:	00008067          	ret

0000000080001bd4 <memset>:
    80001bd4:	00c567b3          	or	a5,a0,a2
    80001bd8:	0077f793          	andi	a5,a5,7
    80001bdc:	00c50633          	add	a2,a0,a2
    80001be0:	0ff5f593          	andi	a1,a1,255
    80001be4:	00078e63          	beqz	a5,80001c00 <memset+0x2c>
    80001be8:	00050793          	mv	a5,a0
    80001bec:	04c57263          	bleu	a2,a0,80001c30 <memset+0x5c>
    80001bf0:	00178793          	addi	a5,a5,1
    80001bf4:	feb78fa3          	sb	a1,-1(a5)
    80001bf8:	fef61ce3          	bne	a2,a5,80001bf0 <memset+0x1c>
    80001bfc:	00008067          	ret
    80001c00:	00859793          	slli	a5,a1,0x8
    80001c04:	00f5e7b3          	or	a5,a1,a5
    80001c08:	01079593          	slli	a1,a5,0x10
    80001c0c:	00b7e7b3          	or	a5,a5,a1
    80001c10:	02079713          	slli	a4,a5,0x20
    80001c14:	00e7e7b3          	or	a5,a5,a4
    80001c18:	fec572e3          	bleu	a2,a0,80001bfc <memset+0x28>
    80001c1c:	00050713          	mv	a4,a0
    80001c20:	00870713          	addi	a4,a4,8
    80001c24:	fef73c23          	sd	a5,-8(a4)
    80001c28:	fec76ce3          	bltu	a4,a2,80001c20 <memset+0x4c>
    80001c2c:	00008067          	ret
    80001c30:	00008067          	ret

0000000080001c34 <_init>:
    80001c34:	f0010113          	addi	sp,sp,-256
    80001c38:	0e813823          	sd	s0,240(sp)
    80001c3c:	0e913423          	sd	s1,232(sp)
    80001c40:	00020493          	mv	s1,tp
    80001c44:	00020413          	mv	s0,tp
    80001c48:	40848433          	sub	s0,s1,s0
    80001c4c:	00040613          	mv	a2,s0
    80001c50:	0f213023          	sd	s2,224(sp)
    80001c54:	0d413823          	sd	s4,208(sp)
    80001c58:	00050913          	mv	s2,a0
    80001c5c:	00058a13          	mv	s4,a1
    80001c60:	00020513          	mv	a0,tp
    80001c64:	00006597          	auipc	a1,0x6
    80001c68:	49c58593          	addi	a1,a1,1180 # 80008100 <_end>
    80001c6c:	0e113c23          	sd	ra,248(sp)
    80001c70:	0d313c23          	sd	s3,216(sp)
    80001c74:	0d513423          	sd	s5,200(sp)
    80001c78:	0d613023          	sd	s6,192(sp)
    80001c7c:	00020a93          	mv	s5,tp
    80001c80:	ef9ff0ef          	jal	ra,80001b78 <memcpy>
    80001c84:	04420613          	addi	a2,tp,68 # 44 <_tbss_end>
    80001c88:	40960633          	sub	a2,a2,s1
    80001c8c:	008a8533          	add	a0,s5,s0
    80001c90:	00000593          	li	a1,0
    80001c94:	f41ff0ef          	jal	ra,80001bd4 <memset>
    80001c98:	000a0593          	mv	a1,s4
    80001c9c:	00090513          	mv	a0,s2
    80001ca0:	db9ff0ef          	jal	ra,80001a58 <thread_entry>
    80001ca4:	03f10993          	addi	s3,sp,63
    80001ca8:	00000593          	li	a1,0
    80001cac:	00000513          	li	a0,0
    80001cb0:	fc09f993          	andi	s3,s3,-64
    80001cb4:	00006497          	auipc	s1,0x6
    80001cb8:	42c48493          	addi	s1,s1,1068 # 800080e0 <counter_names>
    80001cbc:	190000ef          	jal	ra,80001e4c <main>
    80001cc0:	00050b13          	mv	s6,a0
    80001cc4:	00006417          	auipc	s0,0x6
    80001cc8:	3fc40413          	addi	s0,s0,1020 # 800080c0 <counters>
    80001ccc:	00048a13          	mv	s4,s1
    80001cd0:	00098913          	mv	s2,s3
    80001cd4:	00000a97          	auipc	s5,0x0
    80001cd8:	3dca8a93          	addi	s5,s5,988 # 800020b0 <main+0x264>
    80001cdc:	00043683          	ld	a3,0(s0)
    80001ce0:	02069263          	bnez	a3,80001d04 <_init+0xd0>
    80001ce4:	00840413          	addi	s0,s0,8
    80001ce8:	00848493          	addi	s1,s1,8
    80001cec:	ff4418e3          	bne	s0,s4,80001cdc <_init+0xa8>
    80001cf0:	01298663          	beq	s3,s2,80001cfc <_init+0xc8>
    80001cf4:	00098513          	mv	a0,s3
    80001cf8:	ce1ff0ef          	jal	ra,800019d8 <printstr>
    80001cfc:	000b0513          	mv	a0,s6
    80001d00:	c95ff0ef          	jal	ra,80001994 <tohost_exit>
    80001d04:	0004b603          	ld	a2,0(s1)
    80001d08:	00090513          	mv	a0,s2
    80001d0c:	000a8593          	mv	a1,s5
    80001d10:	dfdff0ef          	jal	ra,80001b0c <sprintf>
    80001d14:	00a90933          	add	s2,s2,a0
    80001d18:	fcdff06f          	j	80001ce4 <_init+0xb0>

0000000080001d1c <strlen>:
    80001d1c:	00054783          	lbu	a5,0(a0)
    80001d20:	00050713          	mv	a4,a0
    80001d24:	00078c63          	beqz	a5,80001d3c <strlen+0x20>
    80001d28:	00150513          	addi	a0,a0,1
    80001d2c:	00054783          	lbu	a5,0(a0)
    80001d30:	fe079ce3          	bnez	a5,80001d28 <strlen+0xc>
    80001d34:	40e50533          	sub	a0,a0,a4
    80001d38:	00008067          	ret
    80001d3c:	00000513          	li	a0,0
    80001d40:	00008067          	ret

0000000080001d44 <strnlen>:
    80001d44:	00050713          	mv	a4,a0
    80001d48:	02058663          	beqz	a1,80001d74 <strnlen+0x30>
    80001d4c:	00054783          	lbu	a5,0(a0)
    80001d50:	02078263          	beqz	a5,80001d74 <strnlen+0x30>
    80001d54:	00b505b3          	add	a1,a0,a1
    80001d58:	00c0006f          	j	80001d64 <strnlen+0x20>
    80001d5c:	00054783          	lbu	a5,0(a0)
    80001d60:	00078663          	beqz	a5,80001d6c <strnlen+0x28>
    80001d64:	00150513          	addi	a0,a0,1
    80001d68:	feb51ae3          	bne	a0,a1,80001d5c <strnlen+0x18>
    80001d6c:	40e50533          	sub	a0,a0,a4
    80001d70:	00008067          	ret
    80001d74:	00000513          	li	a0,0
    80001d78:	00008067          	ret

0000000080001d7c <strcmp>:
    80001d7c:	00150513          	addi	a0,a0,1
    80001d80:	fff54783          	lbu	a5,-1(a0)
    80001d84:	00158593          	addi	a1,a1,1
    80001d88:	fff5c703          	lbu	a4,-1(a1)
    80001d8c:	00078a63          	beqz	a5,80001da0 <strcmp+0x24>
    80001d90:	fee786e3          	beq	a5,a4,80001d7c <strcmp>
    80001d94:	0007851b          	sext.w	a0,a5
    80001d98:	40e5053b          	subw	a0,a0,a4
    80001d9c:	00008067          	ret
    80001da0:	00000513          	li	a0,0
    80001da4:	ff5ff06f          	j	80001d98 <strcmp+0x1c>

0000000080001da8 <strcpy>:
    80001da8:	00050793          	mv	a5,a0
    80001dac:	00158593          	addi	a1,a1,1
    80001db0:	fff5c703          	lbu	a4,-1(a1)
    80001db4:	00178793          	addi	a5,a5,1
    80001db8:	fee78fa3          	sb	a4,-1(a5)
    80001dbc:	fe0718e3          	bnez	a4,80001dac <strcpy+0x4>
    80001dc0:	00008067          	ret

0000000080001dc4 <atol>:
    80001dc4:	00054783          	lbu	a5,0(a0)
    80001dc8:	02000713          	li	a4,32
    80001dcc:	00e79863          	bne	a5,a4,80001ddc <atol+0x18>
    80001dd0:	00150513          	addi	a0,a0,1
    80001dd4:	00054783          	lbu	a5,0(a0)
    80001dd8:	fee78ce3          	beq	a5,a4,80001dd0 <atol+0xc>
    80001ddc:	fd57871b          	addiw	a4,a5,-43
    80001de0:	0fd77713          	andi	a4,a4,253
    80001de4:	04070263          	beqz	a4,80001e28 <atol+0x64>
    80001de8:	00054683          	lbu	a3,0(a0)
    80001dec:	00050793          	mv	a5,a0
    80001df0:	00000613          	li	a2,0
    80001df4:	04068863          	beqz	a3,80001e44 <atol+0x80>
    80001df8:	00000513          	li	a0,0
    80001dfc:	00178793          	addi	a5,a5,1
    80001e00:	fd06859b          	addiw	a1,a3,-48
    80001e04:	00251713          	slli	a4,a0,0x2
    80001e08:	0007c683          	lbu	a3,0(a5)
    80001e0c:	00a70533          	add	a0,a4,a0
    80001e10:	00151513          	slli	a0,a0,0x1
    80001e14:	00a58533          	add	a0,a1,a0
    80001e18:	fe0692e3          	bnez	a3,80001dfc <atol+0x38>
    80001e1c:	00060463          	beqz	a2,80001e24 <atol+0x60>
    80001e20:	40a00533          	neg	a0,a0
    80001e24:	00008067          	ret
    80001e28:	00154683          	lbu	a3,1(a0)
    80001e2c:	fd378793          	addi	a5,a5,-45
    80001e30:	0017b613          	seqz	a2,a5
    80001e34:	00150793          	addi	a5,a0,1
    80001e38:	fc0690e3          	bnez	a3,80001df8 <atol+0x34>
    80001e3c:	00000513          	li	a0,0
    80001e40:	fddff06f          	j	80001e1c <atol+0x58>
    80001e44:	00000513          	li	a0,0
    80001e48:	00008067          	ret

Disassembly of section .text.startup:

0000000080001e4c <main>:
    80001e4c:	ff010113          	addi	sp,sp,-16
    80001e50:	00813023          	sd	s0,0(sp)
    80001e54:	00001437          	lui	s0,0x1
    80001e58:	80040513          	addi	a0,s0,-2048 # 800 <_tbss_end+0x7bc>
    80001e5c:	00004617          	auipc	a2,0x4
    80001e60:	26460613          	addi	a2,a2,612 # 800060c0 <scratch.1927>
    80001e64:	00000597          	auipc	a1,0x0
    80001e68:	25c58593          	addi	a1,a1,604 # 800020c0 <verify_data>
    80001e6c:	00113423          	sd	ra,8(sp)
    80001e70:	a2cff0ef          	jal	ra,8000109c <sort>
    80001e74:	00002517          	auipc	a0,0x2
    80001e78:	24c50513          	addi	a0,a0,588 # 800040c0 <input_data>
    80001e7c:	9ccff0ef          	jal	ra,80001048 <verify.constprop.1>
    80001e80:	00050c63          	beqz	a0,80001e98 <main+0x4c>
    80001e84:	00813083          	ld	ra,8(sp)
    80001e88:	00013403          	ld	s0,0(sp)
    80001e8c:	00100513          	li	a0,1
    80001e90:	01010113          	addi	sp,sp,16
    80001e94:	00008067          	ret
    80001e98:	00100513          	li	a0,1
    80001e9c:	a35ff0ef          	jal	ra,800018d0 <setStats>
    80001ea0:	80040513          	addi	a0,s0,-2048
    80001ea4:	00004617          	auipc	a2,0x4
    80001ea8:	21c60613          	addi	a2,a2,540 # 800060c0 <scratch.1927>
    80001eac:	00002597          	auipc	a1,0x2
    80001eb0:	21458593          	addi	a1,a1,532 # 800040c0 <input_data>
    80001eb4:	9e8ff0ef          	jal	ra,8000109c <sort>
    80001eb8:	00000513          	li	a0,0
    80001ebc:	a15ff0ef          	jal	ra,800018d0 <setStats>
    80001ec0:	00013403          	ld	s0,0(sp)
    80001ec4:	00813083          	ld	ra,8(sp)
    80001ec8:	00000517          	auipc	a0,0x0
    80001ecc:	1f850513          	addi	a0,a0,504 # 800020c0 <verify_data>
    80001ed0:	01010113          	addi	sp,sp,16
    80001ed4:	974ff06f          	j	80001048 <verify.constprop.1>
    80001ed8:	ff010113          	addi	sp,sp,-16
    80001edc:	00000517          	auipc	a0,0x0
    80001ee0:	1bc50513          	addi	a0,a0,444 # 80002098 <main+0x24c>
    80001ee4:	00113423          	sd	ra,8(sp)
    80001ee8:	af1ff0ef          	jal	ra,800019d8 <printstr>
    80001eec:	00813083          	ld	ra,8(sp)
    80001ef0:	fff00513          	li	a0,-1
    80001ef4:	01010113          	addi	sp,sp,16
    80001ef8:	00008067          	ret
