
vvadd.riscv:     file format elf64-littleriscv


Disassembly of section .text:

0000000080001048 <vvadd>:
    80001048:	02a05c63          	blez	a0,80001080 <vvadd+0x38>
    8000104c:	fff5071b          	addiw	a4,a0,-1
    80001050:	02071713          	slli	a4,a4,0x20
    80001054:	01e75713          	srli	a4,a4,0x1e
    80001058:	00458793          	addi	a5,a1,4
    8000105c:	00f70733          	add	a4,a4,a5
    80001060:	0005a783          	lw	a5,0(a1)
    80001064:	00062503          	lw	a0,0(a2)
    80001068:	00458593          	addi	a1,a1,4
    8000106c:	00460613          	addi	a2,a2,4
    80001070:	00a787bb          	addw	a5,a5,a0
    80001074:	00f6a023          	sw	a5,0(a3)
    80001078:	00468693          	addi	a3,a3,4
    8000107c:	fee592e3          	bne	a1,a4,80001060 <vvadd+0x18>
    80001080:	00008067          	ret

0000000080001084 <vprintfmt>:
    80001084:	ea010113          	addi	sp,sp,-352
    80001088:	14813823          	sd	s0,336(sp)
    8000108c:	14913423          	sd	s1,328(sp)
    80001090:	15213023          	sd	s2,320(sp)
    80001094:	13413823          	sd	s4,304(sp)
    80001098:	13513423          	sd	s5,296(sp)
    8000109c:	13613023          	sd	s6,288(sp)
    800010a0:	14113c23          	sd	ra,344(sp)
    800010a4:	13313c23          	sd	s3,312(sp)
    800010a8:	11713c23          	sd	s7,280(sp)
    800010ac:	11813823          	sd	s8,272(sp)
    800010b0:	11913423          	sd	s9,264(sp)
    800010b4:	00050913          	mv	s2,a0
    800010b8:	00058493          	mv	s1,a1
    800010bc:	00060413          	mv	s0,a2
    800010c0:	00068b13          	mv	s6,a3
    800010c4:	02500a13          	li	s4,37
    800010c8:	00001a97          	auipc	s5,0x1
    800010cc:	b4ca8a93          	addi	s5,s5,-1204 # 80001c14 <main+0x118>
    800010d0:	0140006f          	j	800010e4 <vprintfmt+0x60>
    800010d4:	06050063          	beqz	a0,80001134 <vprintfmt+0xb0>
    800010d8:	00048593          	mv	a1,s1
    800010dc:	00140413          	addi	s0,s0,1
    800010e0:	000900e7          	jalr	s2
    800010e4:	00044503          	lbu	a0,0(s0)
    800010e8:	ff4516e3          	bne	a0,s4,800010d4 <vprintfmt+0x50>
    800010ec:	00144683          	lbu	a3,1(s0)
    800010f0:	00140c93          	addi	s9,s0,1
    800010f4:	000c8713          	mv	a4,s9
    800010f8:	02000b93          	li	s7,32
    800010fc:	fff00993          	li	s3,-1
    80001100:	fff00c13          	li	s8,-1
    80001104:	00000593          	li	a1,0
    80001108:	05500613          	li	a2,85
    8000110c:	00900513          	li	a0,9
    80001110:	fdd6879b          	addiw	a5,a3,-35
    80001114:	0ff7f793          	andi	a5,a5,255
    80001118:	00170413          	addi	s0,a4,1
    8000111c:	2af66863          	bltu	a2,a5,800013cc <vprintfmt+0x348>
    80001120:	00279793          	slli	a5,a5,0x2
    80001124:	015787b3          	add	a5,a5,s5
    80001128:	0007a783          	lw	a5,0(a5)
    8000112c:	015787b3          	add	a5,a5,s5
    80001130:	00078067          	jr	a5
    80001134:	15813083          	ld	ra,344(sp)
    80001138:	15013403          	ld	s0,336(sp)
    8000113c:	14813483          	ld	s1,328(sp)
    80001140:	14013903          	ld	s2,320(sp)
    80001144:	13813983          	ld	s3,312(sp)
    80001148:	13013a03          	ld	s4,304(sp)
    8000114c:	12813a83          	ld	s5,296(sp)
    80001150:	12013b03          	ld	s6,288(sp)
    80001154:	11813b83          	ld	s7,280(sp)
    80001158:	11013c03          	ld	s8,272(sp)
    8000115c:	10813c83          	ld	s9,264(sp)
    80001160:	16010113          	addi	sp,sp,352
    80001164:	00008067          	ret
    80001168:	00800713          	li	a4,8
    8000116c:	00100793          	li	a5,1
    80001170:	008b0693          	addi	a3,s6,8
    80001174:	12b7d863          	ble	a1,a5,800012a4 <vprintfmt+0x220>
    80001178:	000b3783          	ld	a5,0(s6)
    8000117c:	00068b13          	mv	s6,a3
    80001180:	02e7f6b3          	remu	a3,a5,a4
    80001184:	000b8b9b          	sext.w	s7,s7
    80001188:	00410613          	addi	a2,sp,4
    8000118c:	00100993          	li	s3,1
    80001190:	00d12023          	sw	a3,0(sp)
    80001194:	00e7f663          	bleu	a4,a5,800011a0 <vprintfmt+0x11c>
    80001198:	2480006f          	j	800013e0 <vprintfmt+0x35c>
    8000119c:	000c8993          	mv	s3,s9
    800011a0:	02e7d7b3          	divu	a5,a5,a4
    800011a4:	00460613          	addi	a2,a2,4
    800011a8:	00198c9b          	addiw	s9,s3,1
    800011ac:	02e7f6b3          	remu	a3,a5,a4
    800011b0:	fed62e23          	sw	a3,-4(a2)
    800011b4:	fee7f4e3          	bleu	a4,a5,8000119c <vprintfmt+0x118>
    800011b8:	018cde63          	ble	s8,s9,800011d4 <vprintfmt+0x150>
    800011bc:	000c0c1b          	sext.w	s8,s8
    800011c0:	fffc0c1b          	addiw	s8,s8,-1
    800011c4:	00048593          	mv	a1,s1
    800011c8:	000b8513          	mv	a0,s7
    800011cc:	000900e7          	jalr	s2
    800011d0:	ff8cc8e3          	blt	s9,s8,800011c0 <vprintfmt+0x13c>
    800011d4:	00299793          	slli	a5,s3,0x2
    800011d8:	10010713          	addi	a4,sp,256
    800011dc:	00f707b3          	add	a5,a4,a5
    800011e0:	f007a683          	lw	a3,-256(a5)
    800011e4:	fff98b9b          	addiw	s7,s3,-1
    800011e8:	002b9b93          	slli	s7,s7,0x2
    800011ec:	01710bb3          	add	s7,sp,s7
    800011f0:	00900c13          	li	s8,9
    800011f4:	0100006f          	j	80001204 <vprintfmt+0x180>
    800011f8:	000ba683          	lw	a3,0(s7)
    800011fc:	fff98993          	addi	s3,s3,-1
    80001200:	ffcb8b93          	addi	s7,s7,-4
    80001204:	03000513          	li	a0,48
    80001208:	00dc7463          	bleu	a3,s8,80001210 <vprintfmt+0x18c>
    8000120c:	05700513          	li	a0,87
    80001210:	00048593          	mv	a1,s1
    80001214:	00d5053b          	addw	a0,a0,a3
    80001218:	000900e7          	jalr	s2
    8000121c:	0009879b          	sext.w	a5,s3
    80001220:	fcf04ce3          	bgtz	a5,800011f8 <vprintfmt+0x174>
    80001224:	ec1ff06f          	j	800010e4 <vprintfmt+0x60>
    80001228:	03000513          	li	a0,48
    8000122c:	00048593          	mv	a1,s1
    80001230:	000900e7          	jalr	s2
    80001234:	00048593          	mv	a1,s1
    80001238:	07800513          	li	a0,120
    8000123c:	000900e7          	jalr	s2
    80001240:	008b0693          	addi	a3,s6,8
    80001244:	01000713          	li	a4,16
    80001248:	f31ff06f          	j	80001178 <vprintfmt+0xf4>
    8000124c:	000b3c83          	ld	s9,0(s6)
    80001250:	008b0b13          	addi	s6,s6,8
    80001254:	200c8c63          	beqz	s9,8000146c <vprintfmt+0x3e8>
    80001258:	1b805463          	blez	s8,80001400 <vprintfmt+0x37c>
    8000125c:	02d00793          	li	a5,45
    80001260:	1efb8e63          	beq	s7,a5,8000145c <vprintfmt+0x3d8>
    80001264:	000c059b          	sext.w	a1,s8
    80001268:	20098e63          	beqz	s3,80001484 <vprintfmt+0x400>
    8000126c:	000cc783          	lbu	a5,0(s9)
    80001270:	20078a63          	beqz	a5,80001484 <vprintfmt+0x400>
    80001274:	001c8793          	addi	a5,s9,1
    80001278:	013c8633          	add	a2,s9,s3
    8000127c:	24f60463          	beq	a2,a5,800014c4 <vprintfmt+0x440>
    80001280:	00178713          	addi	a4,a5,1
    80001284:	fff74683          	lbu	a3,-1(a4)
    80001288:	16068663          	beqz	a3,800013f4 <vprintfmt+0x370>
    8000128c:	00070793          	mv	a5,a4
    80001290:	fedff06f          	j	8000127c <vprintfmt+0x1f8>
    80001294:	00100793          	li	a5,1
    80001298:	00a00713          	li	a4,10
    8000129c:	008b0693          	addi	a3,s6,8
    800012a0:	ecb7cce3          	blt	a5,a1,80001178 <vprintfmt+0xf4>
    800012a4:	ec059ae3          	bnez	a1,80001178 <vprintfmt+0xf4>
    800012a8:	000b6783          	lwu	a5,0(s6)
    800012ac:	00068b13          	mv	s6,a3
    800012b0:	ed1ff06f          	j	80001180 <vprintfmt+0xfc>
    800012b4:	00174683          	lbu	a3,1(a4)
    800012b8:	00040713          	mv	a4,s0
    800012bc:	e55ff06f          	j	80001110 <vprintfmt+0x8c>
    800012c0:	00048593          	mv	a1,s1
    800012c4:	02500513          	li	a0,37
    800012c8:	000900e7          	jalr	s2
    800012cc:	e19ff06f          	j	800010e4 <vprintfmt+0x60>
    800012d0:	01000713          	li	a4,16
    800012d4:	e99ff06f          	j	8000116c <vprintfmt+0xe8>
    800012d8:	000b2983          	lw	s3,0(s6)
    800012dc:	00174683          	lbu	a3,1(a4)
    800012e0:	008b0b13          	addi	s6,s6,8
    800012e4:	00040713          	mv	a4,s0
    800012e8:	e20c54e3          	bgez	s8,80001110 <vprintfmt+0x8c>
    800012ec:	00098c13          	mv	s8,s3
    800012f0:	fff00993          	li	s3,-1
    800012f4:	e1dff06f          	j	80001110 <vprintfmt+0x8c>
    800012f8:	00174683          	lbu	a3,1(a4)
    800012fc:	02d00b93          	li	s7,45
    80001300:	00040713          	mv	a4,s0
    80001304:	e0dff06f          	j	80001110 <vprintfmt+0x8c>
    80001308:	fffc4793          	not	a5,s8
    8000130c:	43f7d793          	srai	a5,a5,0x3f
    80001310:	00fc7c33          	and	s8,s8,a5
    80001314:	00174683          	lbu	a3,1(a4)
    80001318:	000c0c1b          	sext.w	s8,s8
    8000131c:	00040713          	mv	a4,s0
    80001320:	df1ff06f          	j	80001110 <vprintfmt+0x8c>
    80001324:	00174683          	lbu	a3,1(a4)
    80001328:	03000b93          	li	s7,48
    8000132c:	00040713          	mv	a4,s0
    80001330:	de1ff06f          	j	80001110 <vprintfmt+0x8c>
    80001334:	fd06899b          	addiw	s3,a3,-48
    80001338:	00174683          	lbu	a3,1(a4)
    8000133c:	00040713          	mv	a4,s0
    80001340:	fd06879b          	addiw	a5,a3,-48
    80001344:	0006881b          	sext.w	a6,a3
    80001348:	faf560e3          	bltu	a0,a5,800012e8 <vprintfmt+0x264>
    8000134c:	00170713          	addi	a4,a4,1
    80001350:	0029979b          	slliw	a5,s3,0x2
    80001354:	00074683          	lbu	a3,0(a4)
    80001358:	013789bb          	addw	s3,a5,s3
    8000135c:	0019999b          	slliw	s3,s3,0x1
    80001360:	010989bb          	addw	s3,s3,a6
    80001364:	fd06879b          	addiw	a5,a3,-48
    80001368:	fd09899b          	addiw	s3,s3,-48
    8000136c:	0006881b          	sext.w	a6,a3
    80001370:	fcf57ee3          	bleu	a5,a0,8000134c <vprintfmt+0x2c8>
    80001374:	f75ff06f          	j	800012e8 <vprintfmt+0x264>
    80001378:	000b2503          	lw	a0,0(s6)
    8000137c:	00048593          	mv	a1,s1
    80001380:	008b0b13          	addi	s6,s6,8
    80001384:	000900e7          	jalr	s2
    80001388:	d5dff06f          	j	800010e4 <vprintfmt+0x60>
    8000138c:	00100793          	li	a5,1
    80001390:	008b0c93          	addi	s9,s6,8
    80001394:	0ab7de63          	ble	a1,a5,80001450 <vprintfmt+0x3cc>
    80001398:	000b3983          	ld	s3,0(s6)
    8000139c:	1009d263          	bgez	s3,800014a0 <vprintfmt+0x41c>
    800013a0:	00048593          	mv	a1,s1
    800013a4:	02d00513          	li	a0,45
    800013a8:	000900e7          	jalr	s2
    800013ac:	000c8b13          	mv	s6,s9
    800013b0:	413007b3          	neg	a5,s3
    800013b4:	00a00713          	li	a4,10
    800013b8:	dc9ff06f          	j	80001180 <vprintfmt+0xfc>
    800013bc:	00174683          	lbu	a3,1(a4)
    800013c0:	0015859b          	addiw	a1,a1,1
    800013c4:	00040713          	mv	a4,s0
    800013c8:	d49ff06f          	j	80001110 <vprintfmt+0x8c>
    800013cc:	00048593          	mv	a1,s1
    800013d0:	02500513          	li	a0,37
    800013d4:	000900e7          	jalr	s2
    800013d8:	000c8413          	mv	s0,s9
    800013dc:	d09ff06f          	j	800010e4 <vprintfmt+0x60>
    800013e0:	00100793          	li	a5,1
    800013e4:	00000993          	li	s3,0
    800013e8:	00100c93          	li	s9,1
    800013ec:	dd87c8e3          	blt	a5,s8,800011bc <vprintfmt+0x138>
    800013f0:	df5ff06f          	j	800011e4 <vprintfmt+0x160>
    800013f4:	41978c33          	sub	s8,a5,s9
    800013f8:	41858c3b          	subw	s8,a1,s8
    800013fc:	09804463          	bgtz	s8,80001484 <vprintfmt+0x400>
    80001400:	000cc503          	lbu	a0,0(s9)
    80001404:	ce0500e3          	beqz	a0,800010e4 <vprintfmt+0x60>
    80001408:	fff00b93          	li	s7,-1
    8000140c:	0209dc63          	bgez	s3,80001444 <vprintfmt+0x3c0>
    80001410:	00048593          	mv	a1,s1
    80001414:	001c8c93          	addi	s9,s9,1
    80001418:	000900e7          	jalr	s2
    8000141c:	000cc503          	lbu	a0,0(s9)
    80001420:	fffc0c1b          	addiw	s8,s8,-1
    80001424:	fe0514e3          	bnez	a0,8000140c <vprintfmt+0x388>
    80001428:	cb805ee3          	blez	s8,800010e4 <vprintfmt+0x60>
    8000142c:	fffc0c1b          	addiw	s8,s8,-1
    80001430:	00048593          	mv	a1,s1
    80001434:	02000513          	li	a0,32
    80001438:	000900e7          	jalr	s2
    8000143c:	fe0c18e3          	bnez	s8,8000142c <vprintfmt+0x3a8>
    80001440:	ca5ff06f          	j	800010e4 <vprintfmt+0x60>
    80001444:	fff9899b          	addiw	s3,s3,-1
    80001448:	fd7994e3          	bne	s3,s7,80001410 <vprintfmt+0x38c>
    8000144c:	fddff06f          	j	80001428 <vprintfmt+0x3a4>
    80001450:	f40594e3          	bnez	a1,80001398 <vprintfmt+0x314>
    80001454:	000b2983          	lw	s3,0(s6)
    80001458:	f45ff06f          	j	8000139c <vprintfmt+0x318>
    8000145c:	000cc503          	lbu	a0,0(s9)
    80001460:	fc0506e3          	beqz	a0,8000142c <vprintfmt+0x3a8>
    80001464:	fff00b93          	li	s7,-1
    80001468:	fa5ff06f          	j	8000140c <vprintfmt+0x388>
    8000146c:	05805263          	blez	s8,800014b0 <vprintfmt+0x42c>
    80001470:	02d00793          	li	a5,45
    80001474:	02fb8e63          	beq	s7,a5,800014b0 <vprintfmt+0x42c>
    80001478:	00001c97          	auipc	s9,0x1
    8000147c:	8f8c8c93          	addi	s9,s9,-1800 # 80001d70 <main+0x274>
    80001480:	de5ff06f          	j	80001264 <vprintfmt+0x1e0>
    80001484:	000b8b9b          	sext.w	s7,s7
    80001488:	fffc0c1b          	addiw	s8,s8,-1
    8000148c:	00048593          	mv	a1,s1
    80001490:	000b8513          	mv	a0,s7
    80001494:	000900e7          	jalr	s2
    80001498:	fe0c18e3          	bnez	s8,80001488 <vprintfmt+0x404>
    8000149c:	f65ff06f          	j	80001400 <vprintfmt+0x37c>
    800014a0:	00098793          	mv	a5,s3
    800014a4:	000c8b13          	mv	s6,s9
    800014a8:	00a00713          	li	a4,10
    800014ac:	cd5ff06f          	j	80001180 <vprintfmt+0xfc>
    800014b0:	00001c97          	auipc	s9,0x1
    800014b4:	8c0c8c93          	addi	s9,s9,-1856 # 80001d70 <main+0x274>
    800014b8:	02800513          	li	a0,40
    800014bc:	fff00b93          	li	s7,-1
    800014c0:	f4dff06f          	j	8000140c <vprintfmt+0x388>
    800014c4:	41960c33          	sub	s8,a2,s9
    800014c8:	41858c3b          	subw	s8,a1,s8
    800014cc:	fb804ce3          	bgtz	s8,80001484 <vprintfmt+0x400>
    800014d0:	f31ff06f          	j	80001400 <vprintfmt+0x37c>

00000000800014d4 <sprintf_putch.2924>:
    800014d4:	0005b783          	ld	a5,0(a1)
    800014d8:	00a78023          	sb	a0,0(a5)
    800014dc:	0005b783          	ld	a5,0(a1)
    800014e0:	00178793          	addi	a5,a5,1
    800014e4:	00f5b023          	sd	a5,0(a1)
    800014e8:	00008067          	ret

00000000800014ec <putchar>:
    800014ec:	04022803          	lw	a6,64(tp) # 40 <buflen.2810>
    800014f0:	00020793          	mv	a5,tp
    800014f4:	010787b3          	add	a5,a5,a6
    800014f8:	f8010113          	addi	sp,sp,-128
    800014fc:	0018069b          	addiw	a3,a6,1
    80001500:	04d22023          	sw	a3,64(tp) # 40 <buflen.2810>
    80001504:	00a78023          	sb	a0,0(a5)
    80001508:	03f10713          	addi	a4,sp,63
    8000150c:	00a00793          	li	a5,10
    80001510:	fc077713          	andi	a4,a4,-64
    80001514:	00f50c63          	beq	a0,a5,8000152c <putchar+0x40>
    80001518:	04000793          	li	a5,64
    8000151c:	00f68863          	beq	a3,a5,8000152c <putchar+0x40>
    80001520:	00000513          	li	a0,0
    80001524:	08010113          	addi	sp,sp,128
    80001528:	00008067          	ret
    8000152c:	04000793          	li	a5,64
    80001530:	00f73023          	sd	a5,0(a4)
    80001534:	00100793          	li	a5,1
    80001538:	00f73423          	sd	a5,8(a4)
    8000153c:	00020613          	mv	a2,tp
    80001540:	00c73823          	sd	a2,16(a4)
    80001544:	00d73c23          	sd	a3,24(a4)
    80001548:	0ff0000f          	fence
    8000154c:	00000797          	auipc	a5,0x0
    80001550:	aae7ba23          	sd	a4,-1356(a5) # 80001000 <tohost>
    80001554:	00000697          	auipc	a3,0x0
    80001558:	aec68693          	addi	a3,a3,-1300 # 80001040 <fromhost>
    8000155c:	0006b783          	ld	a5,0(a3)
    80001560:	fe078ee3          	beqz	a5,8000155c <putchar+0x70>
    80001564:	00000797          	auipc	a5,0x0
    80001568:	ac07be23          	sd	zero,-1316(a5) # 80001040 <fromhost>
    8000156c:	0ff0000f          	fence
    80001570:	04022023          	sw	zero,64(tp) # 40 <buflen.2810>
    80001574:	00073783          	ld	a5,0(a4)
    80001578:	00000513          	li	a0,0
    8000157c:	08010113          	addi	sp,sp,128
    80001580:	00008067          	ret

0000000080001584 <setStats>:
    80001584:	00050c63          	beqz	a0,8000159c <setStats+0x18>
    80001588:	40100793          	li	a5,1025
    8000158c:	32379073          	csrw	mhpmevent3,a5
    80001590:	000027b7          	lui	a5,0x2
    80001594:	0017879b          	addiw	a5,a5,1
    80001598:	32479073          	csrw	mhpmevent4,a5
    8000159c:	b00027f3          	csrr	a5,mcycle
    800015a0:	00001717          	auipc	a4,0x1
    800015a4:	64870713          	addi	a4,a4,1608 # 80002be8 <counters>
    800015a8:	00051e63          	bnez	a0,800015c4 <setStats+0x40>
    800015ac:	00073683          	ld	a3,0(a4)
    800015b0:	00000617          	auipc	a2,0x0
    800015b4:	7c860613          	addi	a2,a2,1992 # 80001d78 <main+0x27c>
    800015b8:	00001597          	auipc	a1,0x1
    800015bc:	64c5b823          	sd	a2,1616(a1) # 80002c08 <counter_names>
    800015c0:	40d787b3          	sub	a5,a5,a3
    800015c4:	00001697          	auipc	a3,0x1
    800015c8:	62f6b223          	sd	a5,1572(a3) # 80002be8 <counters>
    800015cc:	b02027f3          	csrr	a5,minstret
    800015d0:	00051e63          	bnez	a0,800015ec <setStats+0x68>
    800015d4:	00873683          	ld	a3,8(a4)
    800015d8:	00000617          	auipc	a2,0x0
    800015dc:	7a860613          	addi	a2,a2,1960 # 80001d80 <main+0x284>
    800015e0:	00001597          	auipc	a1,0x1
    800015e4:	62c5b823          	sd	a2,1584(a1) # 80002c10 <counter_names+0x8>
    800015e8:	40d787b3          	sub	a5,a5,a3
    800015ec:	00001697          	auipc	a3,0x1
    800015f0:	60f6b223          	sd	a5,1540(a3) # 80002bf0 <counters+0x8>
    800015f4:	b03027f3          	csrr	a5,mhpmcounter3
    800015f8:	00051e63          	bnez	a0,80001614 <setStats+0x90>
    800015fc:	01073683          	ld	a3,16(a4)
    80001600:	00000617          	auipc	a2,0x0
    80001604:	79060613          	addi	a2,a2,1936 # 80001d90 <main+0x294>
    80001608:	00001597          	auipc	a1,0x1
    8000160c:	60c5b823          	sd	a2,1552(a1) # 80002c18 <counter_names+0x10>
    80001610:	40d787b3          	sub	a5,a5,a3
    80001614:	00001697          	auipc	a3,0x1
    80001618:	5ef6b223          	sd	a5,1508(a3) # 80002bf8 <counters+0x10>
    8000161c:	b04027f3          	csrr	a5,mhpmcounter4
    80001620:	00051e63          	bnez	a0,8000163c <setStats+0xb8>
    80001624:	01873703          	ld	a4,24(a4)
    80001628:	00000697          	auipc	a3,0x0
    8000162c:	77868693          	addi	a3,a3,1912 # 80001da0 <main+0x2a4>
    80001630:	00001617          	auipc	a2,0x1
    80001634:	5ed63823          	sd	a3,1520(a2) # 80002c20 <counter_names+0x18>
    80001638:	40e787b3          	sub	a5,a5,a4
    8000163c:	00001717          	auipc	a4,0x1
    80001640:	5cf73223          	sd	a5,1476(a4) # 80002c00 <counters+0x18>
    80001644:	00008067          	ret

0000000080001648 <tohost_exit>:
    80001648:	00151793          	slli	a5,a0,0x1
    8000164c:	0017e793          	ori	a5,a5,1
    80001650:	00000717          	auipc	a4,0x0
    80001654:	9af73823          	sd	a5,-1616(a4) # 80001000 <tohost>
    80001658:	0000006f          	j	80001658 <tohost_exit+0x10>

000000008000165c <handle_trap>:
    8000165c:	000017b7          	lui	a5,0x1
    80001660:	a7378793          	addi	a5,a5,-1421 # a73 <_tbss_end+0xa2f>
    80001664:	00000717          	auipc	a4,0x0
    80001668:	98f73e23          	sd	a5,-1636(a4) # 80001000 <tohost>
    8000166c:	0000006f          	j	8000166c <handle_trap+0x10>

0000000080001670 <exit>:
    80001670:	ff010113          	addi	sp,sp,-16
    80001674:	00113423          	sd	ra,8(sp)
    80001678:	fd1ff0ef          	jal	ra,80001648 <tohost_exit>

000000008000167c <abort>:
    8000167c:	10d00793          	li	a5,269
    80001680:	00000717          	auipc	a4,0x0
    80001684:	98f73023          	sd	a5,-1664(a4) # 80001000 <tohost>
    80001688:	0000006f          	j	80001688 <abort+0xc>

000000008000168c <printstr>:
    8000168c:	00054783          	lbu	a5,0(a0)
    80001690:	f8010113          	addi	sp,sp,-128
    80001694:	03f10713          	addi	a4,sp,63
    80001698:	00050693          	mv	a3,a0
    8000169c:	fc077713          	andi	a4,a4,-64
    800016a0:	06078263          	beqz	a5,80001704 <printstr+0x78>
    800016a4:	00050613          	mv	a2,a0
    800016a8:	00150513          	addi	a0,a0,1
    800016ac:	00054783          	lbu	a5,0(a0)
    800016b0:	fe079ce3          	bnez	a5,800016a8 <printstr+0x1c>
    800016b4:	40c50533          	sub	a0,a0,a2
    800016b8:	04000793          	li	a5,64
    800016bc:	00f73023          	sd	a5,0(a4)
    800016c0:	00100793          	li	a5,1
    800016c4:	00f73423          	sd	a5,8(a4)
    800016c8:	00d73823          	sd	a3,16(a4)
    800016cc:	00a73c23          	sd	a0,24(a4)
    800016d0:	0ff0000f          	fence
    800016d4:	00000797          	auipc	a5,0x0
    800016d8:	92e7b623          	sd	a4,-1748(a5) # 80001000 <tohost>
    800016dc:	00000697          	auipc	a3,0x0
    800016e0:	96468693          	addi	a3,a3,-1692 # 80001040 <fromhost>
    800016e4:	0006b783          	ld	a5,0(a3)
    800016e8:	fe078ee3          	beqz	a5,800016e4 <printstr+0x58>
    800016ec:	00000797          	auipc	a5,0x0
    800016f0:	9407ba23          	sd	zero,-1708(a5) # 80001040 <fromhost>
    800016f4:	0ff0000f          	fence
    800016f8:	00073783          	ld	a5,0(a4)
    800016fc:	08010113          	addi	sp,sp,128
    80001700:	00008067          	ret
    80001704:	00000513          	li	a0,0
    80001708:	fb1ff06f          	j	800016b8 <printstr+0x2c>

000000008000170c <thread_entry>:
    8000170c:	00050463          	beqz	a0,80001714 <thread_entry+0x8>
    80001710:	0000006f          	j	80001710 <thread_entry+0x4>
    80001714:	00008067          	ret

0000000080001718 <printhex>:
    80001718:	fd010113          	addi	sp,sp,-48
    8000171c:	02113423          	sd	ra,40(sp)
    80001720:	01710713          	addi	a4,sp,23
    80001724:	00710813          	addi	a6,sp,7
    80001728:	00900593          	li	a1,9
    8000172c:	00f57793          	andi	a5,a0,15
    80001730:	03000613          	li	a2,48
    80001734:	0ff7f693          	andi	a3,a5,255
    80001738:	00f5f463          	bleu	a5,a1,80001740 <printhex+0x28>
    8000173c:	05700613          	li	a2,87
    80001740:	00c687bb          	addw	a5,a3,a2
    80001744:	00f70023          	sb	a5,0(a4)
    80001748:	fff70713          	addi	a4,a4,-1
    8000174c:	00455513          	srli	a0,a0,0x4
    80001750:	fce81ee3          	bne	a6,a4,8000172c <printhex+0x14>
    80001754:	00810513          	addi	a0,sp,8
    80001758:	00010c23          	sb	zero,24(sp)
    8000175c:	f31ff0ef          	jal	ra,8000168c <printstr>
    80001760:	02813083          	ld	ra,40(sp)
    80001764:	03010113          	addi	sp,sp,48
    80001768:	00008067          	ret

000000008000176c <printf>:
    8000176c:	fa010113          	addi	sp,sp,-96
    80001770:	02810313          	addi	t1,sp,40
    80001774:	02b13423          	sd	a1,40(sp)
    80001778:	02c13823          	sd	a2,48(sp)
    8000177c:	02d13c23          	sd	a3,56(sp)
    80001780:	00050613          	mv	a2,a0
    80001784:	00030693          	mv	a3,t1
    80001788:	00000517          	auipc	a0,0x0
    8000178c:	d6450513          	addi	a0,a0,-668 # 800014ec <putchar>
    80001790:	00000593          	li	a1,0
    80001794:	00113c23          	sd	ra,24(sp)
    80001798:	04e13023          	sd	a4,64(sp)
    8000179c:	04f13423          	sd	a5,72(sp)
    800017a0:	05013823          	sd	a6,80(sp)
    800017a4:	05113c23          	sd	a7,88(sp)
    800017a8:	00613423          	sd	t1,8(sp)
    800017ac:	8d9ff0ef          	jal	ra,80001084 <vprintfmt>
    800017b0:	01813083          	ld	ra,24(sp)
    800017b4:	00000513          	li	a0,0
    800017b8:	06010113          	addi	sp,sp,96
    800017bc:	00008067          	ret

00000000800017c0 <sprintf>:
    800017c0:	fa010113          	addi	sp,sp,-96
    800017c4:	03010313          	addi	t1,sp,48
    800017c8:	02813023          	sd	s0,32(sp)
    800017cc:	00a13423          	sd	a0,8(sp)
    800017d0:	02c13823          	sd	a2,48(sp)
    800017d4:	02d13c23          	sd	a3,56(sp)
    800017d8:	00050413          	mv	s0,a0
    800017dc:	00058613          	mv	a2,a1
    800017e0:	00000517          	auipc	a0,0x0
    800017e4:	cf450513          	addi	a0,a0,-780 # 800014d4 <sprintf_putch.2924>
    800017e8:	00810593          	addi	a1,sp,8
    800017ec:	00030693          	mv	a3,t1
    800017f0:	02113423          	sd	ra,40(sp)
    800017f4:	04f13423          	sd	a5,72(sp)
    800017f8:	04e13023          	sd	a4,64(sp)
    800017fc:	05013823          	sd	a6,80(sp)
    80001800:	05113c23          	sd	a7,88(sp)
    80001804:	00613c23          	sd	t1,24(sp)
    80001808:	87dff0ef          	jal	ra,80001084 <vprintfmt>
    8000180c:	00813783          	ld	a5,8(sp)
    80001810:	00078023          	sb	zero,0(a5)
    80001814:	00813503          	ld	a0,8(sp)
    80001818:	02813083          	ld	ra,40(sp)
    8000181c:	4085053b          	subw	a0,a0,s0
    80001820:	02013403          	ld	s0,32(sp)
    80001824:	06010113          	addi	sp,sp,96
    80001828:	00008067          	ret

000000008000182c <memcpy>:
    8000182c:	00c5e7b3          	or	a5,a1,a2
    80001830:	00f567b3          	or	a5,a0,a5
    80001834:	0077f793          	andi	a5,a5,7
    80001838:	00c506b3          	add	a3,a0,a2
    8000183c:	02078463          	beqz	a5,80001864 <memcpy+0x38>
    80001840:	00c58633          	add	a2,a1,a2
    80001844:	00050793          	mv	a5,a0
    80001848:	02d57e63          	bleu	a3,a0,80001884 <memcpy+0x58>
    8000184c:	00158593          	addi	a1,a1,1
    80001850:	fff5c703          	lbu	a4,-1(a1)
    80001854:	00178793          	addi	a5,a5,1
    80001858:	fee78fa3          	sb	a4,-1(a5)
    8000185c:	feb618e3          	bne	a2,a1,8000184c <memcpy+0x20>
    80001860:	00008067          	ret
    80001864:	fed57ee3          	bleu	a3,a0,80001860 <memcpy+0x34>
    80001868:	00050793          	mv	a5,a0
    8000186c:	00858593          	addi	a1,a1,8
    80001870:	ff85b703          	ld	a4,-8(a1)
    80001874:	00878793          	addi	a5,a5,8
    80001878:	fee7bc23          	sd	a4,-8(a5)
    8000187c:	fed7e8e3          	bltu	a5,a3,8000186c <memcpy+0x40>
    80001880:	00008067          	ret
    80001884:	00008067          	ret

0000000080001888 <memset>:
    80001888:	00c567b3          	or	a5,a0,a2
    8000188c:	0077f793          	andi	a5,a5,7
    80001890:	00c50633          	add	a2,a0,a2
    80001894:	0ff5f593          	andi	a1,a1,255
    80001898:	00078e63          	beqz	a5,800018b4 <memset+0x2c>
    8000189c:	00050793          	mv	a5,a0
    800018a0:	04c57263          	bleu	a2,a0,800018e4 <memset+0x5c>
    800018a4:	00178793          	addi	a5,a5,1
    800018a8:	feb78fa3          	sb	a1,-1(a5)
    800018ac:	fef61ce3          	bne	a2,a5,800018a4 <memset+0x1c>
    800018b0:	00008067          	ret
    800018b4:	00859793          	slli	a5,a1,0x8
    800018b8:	00f5e7b3          	or	a5,a1,a5
    800018bc:	01079593          	slli	a1,a5,0x10
    800018c0:	00b7e7b3          	or	a5,a5,a1
    800018c4:	02079713          	slli	a4,a5,0x20
    800018c8:	00e7e7b3          	or	a5,a5,a4
    800018cc:	fec572e3          	bleu	a2,a0,800018b0 <memset+0x28>
    800018d0:	00050713          	mv	a4,a0
    800018d4:	00870713          	addi	a4,a4,8
    800018d8:	fef73c23          	sd	a5,-8(a4)
    800018dc:	fec76ce3          	bltu	a4,a2,800018d4 <memset+0x4c>
    800018e0:	00008067          	ret
    800018e4:	00008067          	ret

00000000800018e8 <_init>:
    800018e8:	f0010113          	addi	sp,sp,-256
    800018ec:	0e813823          	sd	s0,240(sp)
    800018f0:	0e913423          	sd	s1,232(sp)
    800018f4:	00020493          	mv	s1,tp
    800018f8:	00020413          	mv	s0,tp
    800018fc:	40848433          	sub	s0,s1,s0
    80001900:	00040613          	mv	a2,s0
    80001904:	0f213023          	sd	s2,224(sp)
    80001908:	0d413823          	sd	s4,208(sp)
    8000190c:	00050913          	mv	s2,a0
    80001910:	00058a13          	mv	s4,a1
    80001914:	00020513          	mv	a0,tp
    80001918:	85818593          	addi	a1,gp,-1960 # 80002c40 <_end>
    8000191c:	0e113c23          	sd	ra,248(sp)
    80001920:	0d313c23          	sd	s3,216(sp)
    80001924:	0d513423          	sd	s5,200(sp)
    80001928:	0d613023          	sd	s6,192(sp)
    8000192c:	00020a93          	mv	s5,tp
    80001930:	efdff0ef          	jal	ra,8000182c <memcpy>
    80001934:	04420613          	addi	a2,tp,68 # 44 <_tbss_end>
    80001938:	40960633          	sub	a2,a2,s1
    8000193c:	008a8533          	add	a0,s5,s0
    80001940:	00000593          	li	a1,0
    80001944:	f45ff0ef          	jal	ra,80001888 <memset>
    80001948:	000a0593          	mv	a1,s4
    8000194c:	00090513          	mv	a0,s2
    80001950:	dbdff0ef          	jal	ra,8000170c <thread_entry>
    80001954:	03f10993          	addi	s3,sp,63
    80001958:	00000593          	li	a1,0
    8000195c:	00000513          	li	a0,0
    80001960:	fc09f993          	andi	s3,s3,-64
    80001964:	00001497          	auipc	s1,0x1
    80001968:	2a448493          	addi	s1,s1,676 # 80002c08 <counter_names>
    8000196c:	190000ef          	jal	ra,80001afc <main>
    80001970:	00050b13          	mv	s6,a0
    80001974:	00001417          	auipc	s0,0x1
    80001978:	27440413          	addi	s0,s0,628 # 80002be8 <counters>
    8000197c:	00048a13          	mv	s4,s1
    80001980:	00098913          	mv	s2,s3
    80001984:	00000a97          	auipc	s5,0x0
    80001988:	444a8a93          	addi	s5,s5,1092 # 80001dc8 <main+0x2cc>
    8000198c:	00043683          	ld	a3,0(s0)
    80001990:	02069263          	bnez	a3,800019b4 <_init+0xcc>
    80001994:	00840413          	addi	s0,s0,8
    80001998:	00848493          	addi	s1,s1,8
    8000199c:	ff4418e3          	bne	s0,s4,8000198c <_init+0xa4>
    800019a0:	01298663          	beq	s3,s2,800019ac <_init+0xc4>
    800019a4:	00098513          	mv	a0,s3
    800019a8:	ce5ff0ef          	jal	ra,8000168c <printstr>
    800019ac:	000b0513          	mv	a0,s6
    800019b0:	c99ff0ef          	jal	ra,80001648 <tohost_exit>
    800019b4:	0004b603          	ld	a2,0(s1)
    800019b8:	00090513          	mv	a0,s2
    800019bc:	000a8593          	mv	a1,s5
    800019c0:	e01ff0ef          	jal	ra,800017c0 <sprintf>
    800019c4:	00a90933          	add	s2,s2,a0
    800019c8:	fcdff06f          	j	80001994 <_init+0xac>

00000000800019cc <strlen>:
    800019cc:	00054783          	lbu	a5,0(a0)
    800019d0:	00050713          	mv	a4,a0
    800019d4:	00078c63          	beqz	a5,800019ec <strlen+0x20>
    800019d8:	00150513          	addi	a0,a0,1
    800019dc:	00054783          	lbu	a5,0(a0)
    800019e0:	fe079ce3          	bnez	a5,800019d8 <strlen+0xc>
    800019e4:	40e50533          	sub	a0,a0,a4
    800019e8:	00008067          	ret
    800019ec:	00000513          	li	a0,0
    800019f0:	00008067          	ret

00000000800019f4 <strnlen>:
    800019f4:	00050713          	mv	a4,a0
    800019f8:	02058663          	beqz	a1,80001a24 <strnlen+0x30>
    800019fc:	00054783          	lbu	a5,0(a0)
    80001a00:	02078263          	beqz	a5,80001a24 <strnlen+0x30>
    80001a04:	00b505b3          	add	a1,a0,a1
    80001a08:	00c0006f          	j	80001a14 <strnlen+0x20>
    80001a0c:	00054783          	lbu	a5,0(a0)
    80001a10:	00078663          	beqz	a5,80001a1c <strnlen+0x28>
    80001a14:	00150513          	addi	a0,a0,1
    80001a18:	feb51ae3          	bne	a0,a1,80001a0c <strnlen+0x18>
    80001a1c:	40e50533          	sub	a0,a0,a4
    80001a20:	00008067          	ret
    80001a24:	00000513          	li	a0,0
    80001a28:	00008067          	ret

0000000080001a2c <strcmp>:
    80001a2c:	00150513          	addi	a0,a0,1
    80001a30:	fff54783          	lbu	a5,-1(a0)
    80001a34:	00158593          	addi	a1,a1,1
    80001a38:	fff5c703          	lbu	a4,-1(a1)
    80001a3c:	00078a63          	beqz	a5,80001a50 <strcmp+0x24>
    80001a40:	fee786e3          	beq	a5,a4,80001a2c <strcmp>
    80001a44:	0007851b          	sext.w	a0,a5
    80001a48:	40e5053b          	subw	a0,a0,a4
    80001a4c:	00008067          	ret
    80001a50:	00000513          	li	a0,0
    80001a54:	ff5ff06f          	j	80001a48 <strcmp+0x1c>

0000000080001a58 <strcpy>:
    80001a58:	00050793          	mv	a5,a0
    80001a5c:	00158593          	addi	a1,a1,1
    80001a60:	fff5c703          	lbu	a4,-1(a1)
    80001a64:	00178793          	addi	a5,a5,1
    80001a68:	fee78fa3          	sb	a4,-1(a5)
    80001a6c:	fe0718e3          	bnez	a4,80001a5c <strcpy+0x4>
    80001a70:	00008067          	ret

0000000080001a74 <atol>:
    80001a74:	00054783          	lbu	a5,0(a0)
    80001a78:	02000713          	li	a4,32
    80001a7c:	00e79863          	bne	a5,a4,80001a8c <atol+0x18>
    80001a80:	00150513          	addi	a0,a0,1
    80001a84:	00054783          	lbu	a5,0(a0)
    80001a88:	fee78ce3          	beq	a5,a4,80001a80 <atol+0xc>
    80001a8c:	fd57871b          	addiw	a4,a5,-43
    80001a90:	0fd77713          	andi	a4,a4,253
    80001a94:	04070263          	beqz	a4,80001ad8 <atol+0x64>
    80001a98:	00054683          	lbu	a3,0(a0)
    80001a9c:	00050793          	mv	a5,a0
    80001aa0:	00000613          	li	a2,0
    80001aa4:	04068863          	beqz	a3,80001af4 <atol+0x80>
    80001aa8:	00000513          	li	a0,0
    80001aac:	00178793          	addi	a5,a5,1
    80001ab0:	fd06859b          	addiw	a1,a3,-48
    80001ab4:	00251713          	slli	a4,a0,0x2
    80001ab8:	0007c683          	lbu	a3,0(a5)
    80001abc:	00a70533          	add	a0,a4,a0
    80001ac0:	00151513          	slli	a0,a0,0x1
    80001ac4:	00a58533          	add	a0,a1,a0
    80001ac8:	fe0692e3          	bnez	a3,80001aac <atol+0x38>
    80001acc:	00060463          	beqz	a2,80001ad4 <atol+0x60>
    80001ad0:	40a00533          	neg	a0,a0
    80001ad4:	00008067          	ret
    80001ad8:	00154683          	lbu	a3,1(a0)
    80001adc:	fd378793          	addi	a5,a5,-45
    80001ae0:	0017b613          	seqz	a2,a5
    80001ae4:	00150793          	addi	a5,a0,1
    80001ae8:	fc0690e3          	bnez	a3,80001aa8 <atol+0x34>
    80001aec:	00000513          	li	a0,0
    80001af0:	fddff06f          	j	80001acc <atol+0x58>
    80001af4:	00000513          	li	a0,0
    80001af8:	00008067          	ret

Disassembly of section .text.startup:

0000000080001afc <main>:
    80001afc:	b2010113          	addi	sp,sp,-1248
    80001b00:	4c913423          	sd	s1,1224(sp)
    80001b04:	4d213023          	sd	s2,1216(sp)
    80001b08:	4b313c23          	sd	s3,1208(sp)
    80001b0c:	00000917          	auipc	s2,0x0
    80001b10:	77c90913          	addi	s2,s2,1916 # 80002288 <input2_data>
    80001b14:	00000497          	auipc	s1,0x0
    80001b18:	2c448493          	addi	s1,s1,708 # 80001dd8 <input1_data>
    80001b1c:	00010993          	mv	s3,sp
    80001b20:	4c813823          	sd	s0,1232(sp)
    80001b24:	4c113c23          	sd	ra,1240(sp)
    80001b28:	00090593          	mv	a1,s2
    80001b2c:	00098693          	mv	a3,s3
    80001b30:	00090713          	mv	a4,s2
    80001b34:	00048413          	mv	s0,s1
    80001b38:	00042783          	lw	a5,0(s0)
    80001b3c:	00072603          	lw	a2,0(a4)
    80001b40:	00440413          	addi	s0,s0,4
    80001b44:	00470713          	addi	a4,a4,4
    80001b48:	00c787bb          	addw	a5,a5,a2
    80001b4c:	00f6a023          	sw	a5,0(a3)
    80001b50:	00468693          	addi	a3,a3,4
    80001b54:	feb412e3          	bne	s0,a1,80001b38 <main+0x3c>
    80001b58:	00100513          	li	a0,1
    80001b5c:	a29ff0ef          	jal	ra,80001584 <setStats>
    80001b60:	00098713          	mv	a4,s3
    80001b64:	0004a783          	lw	a5,0(s1)
    80001b68:	00092683          	lw	a3,0(s2)
    80001b6c:	00448493          	addi	s1,s1,4
    80001b70:	00490913          	addi	s2,s2,4
    80001b74:	00d787bb          	addw	a5,a5,a3
    80001b78:	00f72023          	sw	a5,0(a4)
    80001b7c:	00470713          	addi	a4,a4,4
    80001b80:	fe8492e3          	bne	s1,s0,80001b64 <main+0x68>
    80001b84:	00000513          	li	a0,0
    80001b88:	9fdff0ef          	jal	ra,80001584 <setStats>
    80001b8c:	00001797          	auipc	a5,0x1
    80001b90:	bac78793          	addi	a5,a5,-1108 # 80002738 <verify_data>
    80001b94:	00000513          	li	a0,0
    80001b98:	12c00813          	li	a6,300
    80001b9c:	0009a683          	lw	a3,0(s3)
    80001ba0:	0007a603          	lw	a2,0(a5)
    80001ba4:	0049a703          	lw	a4,4(s3)
    80001ba8:	0047a583          	lw	a1,4(a5)
    80001bac:	00898993          	addi	s3,s3,8
    80001bb0:	0007071b          	sext.w	a4,a4
    80001bb4:	02d61a63          	bne	a2,a3,80001be8 <main+0xec>
    80001bb8:	0025051b          	addiw	a0,a0,2
    80001bbc:	00b71863          	bne	a4,a1,80001bcc <main+0xd0>
    80001bc0:	00878793          	addi	a5,a5,8
    80001bc4:	fd051ce3          	bne	a0,a6,80001b9c <main+0xa0>
    80001bc8:	00000513          	li	a0,0
    80001bcc:	4d813083          	ld	ra,1240(sp)
    80001bd0:	4d013403          	ld	s0,1232(sp)
    80001bd4:	4c813483          	ld	s1,1224(sp)
    80001bd8:	4c013903          	ld	s2,1216(sp)
    80001bdc:	4b813983          	ld	s3,1208(sp)
    80001be0:	4e010113          	addi	sp,sp,1248
    80001be4:	00008067          	ret
    80001be8:	0015051b          	addiw	a0,a0,1
    80001bec:	fe1ff06f          	j	80001bcc <main+0xd0>
    80001bf0:	ff010113          	addi	sp,sp,-16
    80001bf4:	00000517          	auipc	a0,0x0
    80001bf8:	1bc50513          	addi	a0,a0,444 # 80001db0 <main+0x2b4>
    80001bfc:	00113423          	sd	ra,8(sp)
    80001c00:	a8dff0ef          	jal	ra,8000168c <printstr>
    80001c04:	00813083          	ld	ra,8(sp)
    80001c08:	fff00513          	li	a0,-1
    80001c0c:	01010113          	addi	sp,sp,16
    80001c10:	00008067          	ret

Disassembly of section .data:

0000000080001dd8 <input1_data>:
    80001dd8:	0029                	c.addi	zero,10
    80001dda:	0000                	unimp
    80001ddc:	0341                	addi	t1,t1,16
    80001dde:	0000                	unimp
    80001de0:	0234                	addi	a3,sp,264
    80001de2:	0000                	unimp
    80001de4:	000000bb          	addw	ra,zero,zero
    80001de8:	02ed                	addi	t0,t0,27
    80001dea:	0000                	unimp
    80001dec:	015e                	slli	sp,sp,0x17
    80001dee:	0000                	unimp
    80001df0:	0084                	addi	s1,sp,64
    80001df2:	0000                	unimp
    80001df4:	03b5                	addi	t2,t2,13
    80001df6:	0000                	unimp
    80001df8:	0248                	addi	a0,sp,260
    80001dfa:	0000                	unimp
    80001dfc:	0325                	addi	t1,t1,9
    80001dfe:	0000                	unimp
    80001e00:	026d                	addi	tp,tp,27
    80001e02:	0000                	unimp
    80001e04:	0006                	0x6
    80001e06:	0000                	unimp
    80001e08:	000003a3          	sb	zero,7(zero) # 7 <_tdata_begin+0x7>
    80001e0c:	037a                	slli	t1,t1,0x1e
    80001e0e:	0000                	unimp
    80001e10:	0188                	addi	a0,sp,192
    80001e12:	0000                	unimp
    80001e14:	02b6                	slli	t0,t0,0xd
    80001e16:	0000                	unimp
    80001e18:	03c1                	addi	t2,t2,16
    80001e1a:	0000                	unimp
    80001e1c:	006e                	0x6e
    80001e1e:	0000                	unimp
    80001e20:	0074                	addi	a3,sp,12
    80001e22:	0000                	unimp
    80001e24:	0128                	addi	a0,sp,136
    80001e26:	0000                	unimp
    80001e28:	01aa                	slli	gp,gp,0xa
    80001e2a:	0000                	unimp
    80001e2c:	013a                	slli	sp,sp,0xe
    80001e2e:	0000                	unimp
    80001e30:	00000293          	li	t0,0
    80001e34:	0306                	slli	t1,t1,0x1
    80001e36:	0000                	unimp
    80001e38:	0000013f 000002a6 	0x2a60000013f
    80001e40:	0000036b          	0x36b
    80001e44:	0178                	addi	a4,sp,140
    80001e46:	0000                	unimp
    80001e48:	01da                	slli	gp,gp,0x16
    80001e4a:	0000                	unimp
    80001e4c:	03aa                	slli	t2,t2,0xa
    80001e4e:	0000                	unimp
    80001e50:	0000021b          	sext.w	tp,zero
    80001e54:	0239                	addi	tp,tp,14
    80001e56:	0000                	unimp
    80001e58:	000000cb          	fnmsub.s	ft1,ft0,ft0,ft0,rne
    80001e5c:	0118                	addi	a4,sp,128
    80001e5e:	0000                	unimp
    80001e60:	000002f7          	0x2f7
    80001e64:	025e                	slli	tp,tp,0x17
    80001e66:	0000                	unimp
    80001e68:	01ff                	0x1ff
    80001e6a:	0000                	unimp
    80001e6c:	0291                	addi	t0,t0,4
    80001e6e:	0000                	unimp
    80001e70:	000000c3          	fmadd.s	ft1,ft0,ft0,ft0,rne
    80001e74:	0051                	c.addi	zero,20
    80001e76:	0000                	unimp
    80001e78:	0000010b          	0x10b
    80001e7c:	00e5                	addi	ra,ra,25
    80001e7e:	0000                	unimp
    80001e80:	0151                	addi	sp,sp,20
    80001e82:	0000                	unimp
    80001e84:	03b0                	addi	a2,sp,456
    80001e86:	0000                	unimp
    80001e88:	0386                	slli	t2,t2,0x1
    80001e8a:	0000                	unimp
    80001e8c:	00f1                	addi	ra,ra,28
    80001e8e:	0000                	unimp
    80001e90:	0391                	addi	t2,t2,4
    80001e92:	0000                	unimp
    80001e94:	033a                	slli	t1,t1,0xe
    80001e96:	0000                	unimp
    80001e98:	03a5                	addi	t2,t2,9
    80001e9a:	0000                	unimp
    80001e9c:	03d9                	addi	t2,t2,22
    80001e9e:	0000                	unimp
    80001ea0:	000000c3          	fmadd.s	ft1,ft0,ft0,ft0,rne
    80001ea4:	03c0                	addi	s0,sp,452
    80001ea6:	0000                	unimp
    80001ea8:	0236                	slli	tp,tp,0xd
    80001eaa:	0000                	unimp
    80001eac:	015e                	slli	sp,sp,0x17
    80001eae:	0000                	unimp
    80001eb0:	0289                	addi	t0,t0,2
    80001eb2:	0000                	unimp
    80001eb4:	0291                	addi	t0,t0,4
    80001eb6:	0000                	unimp
    80001eb8:	00b5                	addi	ra,ra,13
    80001eba:	0000                	unimp
    80001ebc:	0000006f          	j	80001ebc <input1_data+0xe4>
    80001ec0:	0000035b          	0x35b
    80001ec4:	0041                	c.addi	zero,16
    80001ec6:	0000                	unimp
    80001ec8:	0120                	addi	s0,sp,136
    80001eca:	0000                	unimp
    80001ecc:	015d                	addi	sp,sp,23
    80001ece:	0000                	unimp
    80001ed0:	008d                	addi	ra,ra,3
    80001ed2:	0000                	unimp
    80001ed4:	0389                	addi	t2,t2,2
    80001ed6:	0000                	unimp
    80001ed8:	0376                	slli	t1,t1,0x1d
    80001eda:	0000                	unimp
    80001edc:	0108                	addi	a0,sp,128
    80001ede:	0000                	unimp
    80001ee0:	0240                	addi	s0,sp,260
    80001ee2:	0000                	unimp
    80001ee4:	000003d3          	fadd.s	ft7,ft0,ft0,rne
    80001ee8:	02f9                	addi	t0,t0,30
    80001eea:	0000                	unimp
    80001eec:	00f1                	addi	ra,ra,28
    80001eee:	0000                	unimp
    80001ef0:	01de                	slli	gp,gp,0x17
    80001ef2:	0000                	unimp
    80001ef4:	000001f3          	0x1f3
    80001ef8:	00000193          	li	gp,0
    80001efc:	00de                	slli	ra,ra,0x17
    80001efe:	0000                	unimp
    80001f00:	01bc                	addi	a5,sp,200
    80001f02:	0000                	unimp
    80001f04:	02d1                	addi	t0,t0,20
    80001f06:	0000                	unimp
    80001f08:	02a4                	addi	s1,sp,328
    80001f0a:	0000                	unimp
    80001f0c:	013d                	addi	sp,sp,15
    80001f0e:	0000                	unimp
    80001f10:	00e0                	addi	s0,sp,76
    80001f12:	0000                	unimp
    80001f14:	03a9                	addi	t2,t2,10
    80001f16:	0000                	unimp
    80001f18:	0120                	addi	s0,sp,136
    80001f1a:	0000                	unimp
    80001f1c:	00000077          	0x77
    80001f20:	00000267          	jalr	tp,zero
    80001f24:	025e                	slli	tp,tp,0x17
    80001f26:	0000                	unimp
    80001f28:	0185                	addi	gp,gp,1
    80001f2a:	0000                	unimp
    80001f2c:	015f 0000 01c7      	0x1c70000015f
    80001f32:	0000                	unimp
    80001f34:	0116                	slli	sp,sp,0x5
    80001f36:	0000                	unimp
    80001f38:	0000016f          	jal	sp,80001f38 <input1_data+0x160>
    80001f3c:	0166                	slli	sp,sp,0x19
    80001f3e:	0000                	unimp
    80001f40:	0248                	addi	a0,sp,260
    80001f42:	0000                	unimp
    80001f44:	003e                	0x3e
    80001f46:	0000                	unimp
    80001f48:	03d9                	addi	t2,t2,22
    80001f4a:	0000                	unimp
    80001f4c:	00000193          	li	gp,0
    80001f50:	015a                	slli	sp,sp,0x16
    80001f52:	0000                	unimp
    80001f54:	0205                	addi	tp,tp,1
    80001f56:	0000                	unimp
    80001f58:	0000022f          	0x22f
    80001f5c:	038c                	addi	a1,sp,448
    80001f5e:	0000                	unimp
    80001f60:	00000307          	0x307
    80001f64:	00ff                	0xff
    80001f66:	0000                	unimp
    80001f68:	030a                	slli	t1,t1,0x2
    80001f6a:	0000                	unimp
    80001f6c:	0256                	slli	tp,tp,0x15
    80001f6e:	0000                	unimp
    80001f70:	0000008f          	0x8f
    80001f74:	0021                	c.addi	zero,8
    80001f76:	0000                	unimp
    80001f78:	007d                	c.addi	zero,31
    80001f7a:	0000                	unimp
    80001f7c:	03ad                	addi	t2,t2,11
    80001f7e:	0000                	unimp
    80001f80:	03a5                	addi	t2,t2,9
    80001f82:	0000                	unimp
    80001f84:	031f 0000 0229      	0x2290000031f
    80001f8a:	0000                	unimp
    80001f8c:	000001af          	0x1af
    80001f90:	0288                	addi	a0,sp,320
    80001f92:	0000                	unimp
    80001f94:	03b8                	addi	a4,sp,456
    80001f96:	0000                	unimp
    80001f98:	011f 0000 0013      	0x130000011f
    80001f9e:	0000                	unimp
    80001fa0:	0031                	c.addi	zero,12
    80001fa2:	0000                	unimp
    80001fa4:	0056                	0x56
    80001fa6:	0000                	unimp
    80001fa8:	005f 0000 01b9      	0x1b90000005f
    80001fae:	0000                	unimp
    80001fb0:	0000024b          	fnmsub.s	ft4,ft0,ft0,ft0,rne
    80001fb4:	0266                	slli	tp,tp,0x19
    80001fb6:	0000                	unimp
    80001fb8:	017e                	slli	sp,sp,0x1f
    80001fba:	0000                	unimp
    80001fbc:	0118                	addi	a4,sp,128
    80001fbe:	0000                	unimp
    80001fc0:	0328                	addi	a0,sp,392
    80001fc2:	0000                	unimp
    80001fc4:	000003cb          	fnmsub.s	ft7,ft0,ft0,ft0,rne
    80001fc8:	00000333          	add	t1,zero,zero
    80001fcc:	0158                	addi	a4,sp,132
    80001fce:	0000                	unimp
    80001fd0:	01c2                	slli	gp,gp,0x10
    80001fd2:	0000                	unimp
    80001fd4:	0200                	addi	s0,sp,256
    80001fd6:	0000                	unimp
    80001fd8:	03c5                	addi	t2,t2,17
    80001fda:	0000                	unimp
    80001fdc:	0000015b          	0x15b
    80001fe0:	0328                	addi	a0,sp,392
    80001fe2:	0000                	unimp
    80001fe4:	0372                	slli	t1,t1,0x1c
    80001fe6:	0000                	unimp
    80001fe8:	0219                	addi	tp,tp,6
    80001fea:	0000                	unimp
    80001fec:	03b2                	slli	t2,t2,0xc
    80001fee:	0000                	unimp
    80001ff0:	02bd                	addi	t0,t0,15
    80001ff2:	0000                	unimp
    80001ff4:	0164                	addi	s1,sp,140
    80001ff6:	0000                	unimp
    80001ff8:	00000237          	lui	tp,0x0
    80001ffc:	0000037b          	0x37b
    80002000:	0016                	0x16
    80002002:	0000                	unimp
    80002004:	0238                	addi	a4,sp,264
    80002006:	0000                	unimp
    80002008:	0299                	addi	t0,t0,6
    8000200a:	0000                	unimp
    8000200c:	000001a7          	0x1a7
    80002010:	01b2                	slli	gp,gp,0xc
    80002012:	0000                	unimp
    80002014:	009e                	slli	ra,ra,0x7
    80002016:	0000                	unimp
    80002018:	0002                	0x2
    8000201a:	0000                	unimp
    8000201c:	0054                	addi	a3,sp,4
    8000201e:	0000                	unimp
    80002020:	000000f7          	0xf7
    80002024:	0031                	c.addi	zero,12
    80002026:	0000                	unimp
    80002028:	000001b3          	add	gp,zero,zero
    8000202c:	0318                	addi	a4,sp,384
    8000202e:	0000                	unimp
    80002030:	0365                	addi	t1,t1,25
    80002032:	0000                	unimp
    80002034:	01e6                	slli	gp,gp,0x19
    80002036:	0000                	unimp
    80002038:	019e                	slli	gp,gp,0x7
    8000203a:	0000                	unimp
    8000203c:	0171                	addi	sp,sp,28
    8000203e:	0000                	unimp
    80002040:	0224                	addi	s1,sp,264
    80002042:	0000                	unimp
    80002044:	0206                	slli	tp,tp,0x1
    80002046:	0000                	unimp
    80002048:	0378                	addi	a4,sp,396
    8000204a:	0000                	unimp
    8000204c:	02aa                	slli	t0,t0,0xa
    8000204e:	0000                	unimp
    80002050:	011c                	addi	a5,sp,128
    80002052:	0000                	unimp
    80002054:	0108                	addi	a0,sp,128
    80002056:	0000                	unimp
    80002058:	000001f3          	0x1f3
    8000205c:	0122                	slli	sp,sp,0x8
    8000205e:	0000                	unimp
    80002060:	0381                	addi	t2,t2,0
    80002062:	0000                	unimp
    80002064:	000000d7          	0xd7
    80002068:	000002db          	0x2db
    8000206c:	02b0                	addi	a2,sp,328
    8000206e:	0000                	unimp
    80002070:	000000fb          	0xfb
    80002074:	0312                	slli	t1,t1,0x4
    80002076:	0000                	unimp
    80002078:	0000022b          	0x22b
    8000207c:	012e                	slli	sp,sp,0xb
    8000207e:	0000                	unimp
    80002080:	0210                	addi	a2,sp,256
    80002082:	0000                	unimp
    80002084:	0220                	addi	s0,sp,264
    80002086:	0000                	unimp
    80002088:	0142                	slli	sp,sp,0x10
    8000208a:	0000                	unimp
    8000208c:	000003b3          	add	t2,zero,zero
    80002090:	011f 0000 0338      	0x3380000011f
    80002096:	0000                	unimp
    80002098:	0130                	addi	a2,sp,136
    8000209a:	0000                	unimp
    8000209c:	0314                	addi	a3,sp,384
    8000209e:	0000                	unimp
    800020a0:	02dd                	addi	t0,t0,23
    800020a2:	0000                	unimp
    800020a4:	000003bf 0000016e 	0x16e000003bf
    800020ac:	02d2                	slli	t0,t0,0x14
    800020ae:	0000                	unimp
    800020b0:	0126                	slli	sp,sp,0x9
    800020b2:	0000                	unimp
    800020b4:	000003cf          	fnmadd.s	ft7,ft0,ft0,ft0,rne
    800020b8:	028d                	addi	t0,t0,3
    800020ba:	0000                	unimp
    800020bc:	02ec                	addi	a1,sp,332
    800020be:	0000                	unimp
    800020c0:	0000005b          	0x5b
    800020c4:	017a                	slli	sp,sp,0x1e
    800020c6:	0000                	unimp
    800020c8:	0069                	c.addi	zero,26
    800020ca:	0000                	unimp
    800020cc:	0066                	0x66
    800020ce:	0000                	unimp
    800020d0:	017d                	addi	sp,sp,31
    800020d2:	0000                	unimp
    800020d4:	0000028b          	0x28b
    800020d8:	0339                	addi	t1,t1,14
    800020da:	0000                	unimp
    800020dc:	0348                	addi	a0,sp,388
    800020de:	0000                	unimp
    800020e0:	0164                	addi	s1,sp,140
    800020e2:	0000                	unimp
    800020e4:	0094                	addi	a3,sp,64
    800020e6:	0000                	unimp
    800020e8:	0036                	0x36
    800020ea:	0000                	unimp
    800020ec:	008c                	addi	a1,sp,64
    800020ee:	0000                	unimp
    800020f0:	000003bb          	addw	t2,zero,zero
    800020f4:	00000157          	0x157
    800020f8:	0215                	addi	tp,tp,5
    800020fa:	0000                	unimp
    800020fc:	02f5                	addi	t0,t0,29
    800020fe:	0000                	unimp
    80002100:	0209                	addi	tp,tp,2
    80002102:	0000                	unimp
    80002104:	0345                	addi	t1,t1,17
    80002106:	0000                	unimp
    80002108:	0250                	addi	a2,sp,260
    8000210a:	0000                	unimp
    8000210c:	000d                	c.addi	zero,3
    8000210e:	0000                	unimp
    80002110:	00ad                	addi	ra,ra,11
    80002112:	0000                	unimp
    80002114:	0000003f 00000079 	0x790000003f
    8000211c:	0085                	addi	ra,ra,1
    8000211e:	0000                	unimp
    80002120:	02f6                	slli	t0,t0,0x1d
    80002122:	0000                	unimp
    80002124:	0174                	addi	a3,sp,140
    80002126:	0000                	unimp
    80002128:	000003b7          	lui	t2,0x0
    8000212c:	00000027          	0x27
    80002130:	0081                	addi	ra,ra,0
    80002132:	0000                	unimp
    80002134:	006e                	0x6e
    80002136:	0000                	unimp
    80002138:	0000034f          	fnmadd.s	ft6,ft0,ft0,ft0,rne
    8000213c:	01b5                	addi	gp,gp,13
    8000213e:	0000                	unimp
    80002140:	00ff                	0xff
    80002142:	0000                	unimp
    80002144:	010d                	addi	sp,sp,3
    80002146:	0000                	unimp
    80002148:	0199                	addi	gp,gp,6
    8000214a:	0000                	unimp
    8000214c:	0274                	addi	a3,sp,268
    8000214e:	0000                	unimp
    80002150:	0000018f          	0x18f
    80002154:	0225                	addi	tp,tp,9
    80002156:	0000                	unimp
    80002158:	02f1                	addi	t0,t0,28
    8000215a:	0000                	unimp
    8000215c:	0234                	addi	a3,sp,264
    8000215e:	0000                	unimp
    80002160:	000000ab          	0xab
    80002164:	00000013          	nop
    80002168:	000002d7          	0x2d7
    8000216c:	01f5                	addi	gp,gp,29
    8000216e:	0000                	unimp
    80002170:	0309                	addi	t1,t1,2
    80002172:	0000                	unimp
    80002174:	0000002b          	0x2b
    80002178:	02f1                	addi	t0,t0,28
    8000217a:	0000                	unimp
    8000217c:	0051                	c.addi	zero,20
    8000217e:	0000                	unimp
    80002180:	00ca                	slli	ra,ra,0x12
    80002182:	0000                	unimp
    80002184:	0355                	addi	t1,t1,21
    80002186:	0000                	unimp
    80002188:	0099                	addi	ra,ra,6
    8000218a:	0000                	unimp
    8000218c:	02f8                	addi	a4,sp,332
    8000218e:	0000                	unimp
    80002190:	0165                	addi	sp,sp,25
    80002192:	0000                	unimp
    80002194:	000003af          	0x3af
    80002198:	039a                	slli	t2,t2,0x6
    8000219a:	0000                	unimp
    8000219c:	0148                	addi	a0,sp,132
    8000219e:	0000                	unimp
    800021a0:	01f0                	addi	a2,sp,204
    800021a2:	0000                	unimp
    800021a4:	01ba                	slli	gp,gp,0xe
    800021a6:	0000                	unimp
    800021a8:	0204                	addi	s1,sp,256
    800021aa:	0000                	unimp
    800021ac:	0281                	addi	t0,t0,0
    800021ae:	0000                	unimp
    800021b0:	0114                	addi	a3,sp,128
    800021b2:	0000                	unimp
    800021b4:	0312                	slli	t1,t1,0x4
    800021b6:	0000                	unimp
    800021b8:	0071                	c.addi	zero,28
    800021ba:	0000                	unimp
    800021bc:	034a                	slli	t1,t1,0x12
    800021be:	0000                	unimp
    800021c0:	0000038b          	0x38b
    800021c4:	00000113          	li	sp,0
    800021c8:	00ed                	addi	ra,ra,27
    800021ca:	0000                	unimp
    800021cc:	0020                	addi	s0,sp,8
    800021ce:	0000                	unimp
    800021d0:	0310                	addi	a2,sp,384
    800021d2:	0000                	unimp
    800021d4:	0235                	addi	tp,tp,13
    800021d6:	0000                	unimp
    800021d8:	0165                	addi	sp,sp,25
    800021da:	0000                	unimp
    800021dc:	00000323          	sb	zero,6(zero) # 6 <_tdata_begin+0x6>
    800021e0:	00000333          	add	t1,zero,zero
    800021e4:	000002ef          	jal	t0,800021e4 <input1_data+0x40c>
    800021e8:	0118                	addi	a4,sp,128
    800021ea:	0000                	unimp
    800021ec:	0055                	c.addi	zero,21
    800021ee:	0000                	unimp
    800021f0:	01ca                	slli	gp,gp,0x12
    800021f2:	0000                	unimp
    800021f4:	01c6                	slli	gp,gp,0x11
    800021f6:	0000                	unimp
    800021f8:	02c6                	slli	t0,t0,0x11
    800021fa:	0000                	unimp
    800021fc:	000001cb          	fnmsub.s	ft3,ft0,ft0,ft0,rne
    80002200:	0029                	c.addi	zero,10
    80002202:	0000                	unimp
    80002204:	00fd                	addi	ra,ra,31
    80002206:	0000                	unimp
    80002208:	0179                	addi	sp,sp,30
    8000220a:	0000                	unimp
    8000220c:	01fc                	addi	a5,sp,204
    8000220e:	0000                	unimp
    80002210:	02bc                	addi	a5,sp,328
    80002212:	0000                	unimp
    80002214:	035c                	addi	a5,sp,388
    80002216:	0000                	unimp
    80002218:	01e0                	addi	s0,sp,204
    8000221a:	0000                	unimp
    8000221c:	02e5                	addi	t0,t0,25
    8000221e:	0000                	unimp
    80002220:	000001f3          	0x1f3
    80002224:	02c5                	addi	t0,t0,17
    80002226:	0000                	unimp
    80002228:	0031                	c.addi	zero,12
    8000222a:	0000                	unimp
    8000222c:	00000173          	0x173
    80002230:	0369                	addi	t1,t1,26
    80002232:	0000                	unimp
    80002234:	03b1                	addi	t2,t2,12
    80002236:	0000                	unimp
    80002238:	03e0                	addi	s0,sp,460
    8000223a:	0000                	unimp
    8000223c:	020e                	slli	tp,tp,0x3
    8000223e:	0000                	unimp
    80002240:	02d1                	addi	t0,t0,20
    80002242:	0000                	unimp
    80002244:	000001b3          	add	gp,zero,zero
    80002248:	00e8                	addi	a0,sp,76
    8000224a:	0000                	unimp
    8000224c:	01f1                	addi	gp,gp,28
    8000224e:	0000                	unimp
    80002250:	02b9                	addi	t0,t0,14
    80002252:	0000                	unimp
    80002254:	001e                	0x1e
    80002256:	0000                	unimp
    80002258:	015c                	addi	a5,sp,132
    8000225a:	0000                	unimp
    8000225c:	00fa                	slli	ra,ra,0x1e
    8000225e:	0000                	unimp
    80002260:	015e                	slli	sp,sp,0x17
    80002262:	0000                	unimp
    80002264:	00fa                	slli	ra,ra,0x1e
    80002266:	0000                	unimp
    80002268:	023d                	addi	tp,tp,15
    8000226a:	0000                	unimp
    8000226c:	0310                	addi	a2,sp,384
    8000226e:	0000                	unimp
    80002270:	02ed                	addi	t0,t0,27
    80002272:	0000                	unimp
    80002274:	01f6                	slli	gp,gp,0x1d
    80002276:	0000                	unimp
    80002278:	00000337          	lui	t1,0x0
    8000227c:	033a                	slli	t1,t1,0xe
    8000227e:	0000                	unimp
    80002280:	00aa                	slli	ra,ra,0xa
    80002282:	0000                	unimp
    80002284:	00a0                	addi	s0,sp,72
    80002286:	0000                	unimp

0000000080002288 <input2_data>:
    80002288:	01c6                	slli	gp,gp,0x11
    8000228a:	0000                	unimp
    8000228c:	0000014f          	fnmadd.s	ft2,ft0,ft0,ft0,rne
    80002290:	0001                	nop
    80002292:	0000                	unimp
    80002294:	03dd                	addi	t2,t2,23
    80002296:	0000                	unimp
    80002298:	016d                	addi	sp,sp,27
    8000229a:	0000                	unimp
    8000229c:	023c                	addi	a5,sp,264
    8000229e:	0000                	unimp
    800022a0:	0040                	addi	s0,sp,4
    800022a2:	0000                	unimp
    800022a4:	0099                	addi	ra,ra,6
    800022a6:	0000                	unimp
    800022a8:	00d8                	addi	a4,sp,68
    800022aa:	0000                	unimp
    800022ac:	008c                	addi	a1,sp,64
    800022ae:	0000                	unimp
    800022b0:	00d2                	slli	ra,ra,0x14
    800022b2:	0000                	unimp
    800022b4:	023c                	addi	a5,sp,264
    800022b6:	0000                	unimp
    800022b8:	00000153          	fadd.s	ft2,ft0,ft0,rne
    800022bc:	0251                	addi	tp,tp,20
    800022be:	0000                	unimp
    800022c0:	0382                	slli	t2,t2,0x0
    800022c2:	0000                	unimp
    800022c4:	00e4                	addi	s1,sp,76
    800022c6:	0000                	unimp
    800022c8:	000c                	0xc
    800022ca:	0000                	unimp
    800022cc:	00000373          	0x373
    800022d0:	02ee                	slli	t0,t0,0x1b
    800022d2:	0000                	unimp
    800022d4:	0286                	slli	t0,t0,0x1
    800022d6:	0000                	unimp
    800022d8:	01f4                	addi	a3,sp,204
    800022da:	0000                	unimp
    800022dc:	01b4                	addi	a3,sp,200
    800022de:	0000                	unimp
    800022e0:	02bd                	addi	t0,t0,15
    800022e2:	0000                	unimp
    800022e4:	032c                	addi	a1,sp,392
    800022e6:	0000                	unimp
    800022e8:	03d5                	addi	t2,t2,21
    800022ea:	0000                	unimp
    800022ec:	0096                	slli	ra,ra,0x5
    800022ee:	0000                	unimp
    800022f0:	02b8                	addi	a4,sp,328
    800022f2:	0000                	unimp
    800022f4:	0234                	addi	a3,sp,264
    800022f6:	0000                	unimp
    800022f8:	0110                	addi	a2,sp,128
    800022fa:	0000                	unimp
    800022fc:	0102                	slli	sp,sp,0x0
    800022fe:	0000                	unimp
    80002300:	00000287          	0x287
    80002304:	01fd                	addi	gp,gp,31
    80002306:	0000                	unimp
    80002308:	0058                	addi	a4,sp,4
    8000230a:	0000                	unimp
    8000230c:	000002bf 0000029d 	0x29d000002bf
    80002314:	00000177          	0x177
    80002318:	00000227          	0x227
    8000231c:	03a8                	addi	a0,sp,456
    8000231e:	0000                	unimp
    80002320:	0250                	addi	a2,sp,260
    80002322:	0000                	unimp
    80002324:	0239                	addi	tp,tp,14
    80002326:	0000                	unimp
    80002328:	03b8                	addi	a4,sp,456
    8000232a:	0000                	unimp
    8000232c:	0320                	addi	s0,sp,392
    8000232e:	0000                	unimp
    80002330:	0248                	addi	a0,sp,260
    80002332:	0000                	unimp
    80002334:	00000283          	lb	t0,0(zero) # 0 <_tdata_begin>
    80002338:	0170                	addi	a2,sp,140
    8000233a:	0000                	unimp
    8000233c:	01e9                	addi	gp,gp,26
    8000233e:	0000                	unimp
    80002340:	0148                	addi	a0,sp,132
    80002342:	0000                	unimp
    80002344:	0139                	addi	sp,sp,14
    80002346:	0000                	unimp
    80002348:	0250                	addi	a2,sp,260
    8000234a:	0000                	unimp
    8000234c:	0184                	addi	s1,sp,192
    8000234e:	0000                	unimp
    80002350:	021f 0000 0289      	0x2890000021f
    80002356:	0000                	unimp
    80002358:	000003d3          	fadd.s	ft7,ft0,ft0,rne
    8000235c:	03e5                	addi	t2,t2,25
    8000235e:	0000                	unimp
    80002360:	032e                	slli	t1,t1,0xb
    80002362:	0000                	unimp
    80002364:	0000004f          	fnmadd.s	ft0,ft0,ft0,ft0,rne
    80002368:	00d0                	addi	a2,sp,68
    8000236a:	0000                	unimp
    8000236c:	03e6                	slli	t2,t2,0x19
    8000236e:	0000                	unimp
    80002370:	0275                	addi	tp,tp,29
    80002372:	0000                	unimp
    80002374:	0000034f          	fnmadd.s	ft6,ft0,ft0,ft0,rne
    80002378:	02c0                	addi	s0,sp,324
    8000237a:	0000                	unimp
    8000237c:	03e5                	addi	t2,t2,25
    8000237e:	0000                	unimp
    80002380:	00fd                	addi	ra,ra,31
    80002382:	0000                	unimp
    80002384:	000002cb          	fnmsub.s	ft5,ft0,ft0,ft0,rne
    80002388:	01ae                	slli	gp,gp,0xb
    8000238a:	0000                	unimp
    8000238c:	019f 0000 021a      	0x21a0000019f
    80002392:	0000                	unimp
    80002394:	02bc                	addi	a5,sp,328
    80002396:	0000                	unimp
    80002398:	0004                	0x4
    8000239a:	0000                	unimp
    8000239c:	01ee                	slli	gp,gp,0x1b
    8000239e:	0000                	unimp
    800023a0:	0064                	addi	s1,sp,12
    800023a2:	0000                	unimp
    800023a4:	0360                	addi	s0,sp,396
    800023a6:	0000                	unimp
    800023a8:	02b5                	addi	t0,t0,13
    800023aa:	0000                	unimp
    800023ac:	01a0                	addi	s0,sp,200
    800023ae:	0000                	unimp
    800023b0:	0128                	addi	a0,sp,136
    800023b2:	0000                	unimp
    800023b4:	011d                	addi	sp,sp,7
    800023b6:	0000                	unimp
    800023b8:	026c                	addi	a1,sp,268
    800023ba:	0000                	unimp
    800023bc:	004e                	0x4e
    800023be:	0000                	unimp
    800023c0:	015f 0000 021c      	0x21c0000015f
    800023c6:	0000                	unimp
    800023c8:	0286                	slli	t0,t0,0x1
    800023ca:	0000                	unimp
    800023cc:	00a9                	addi	ra,ra,10
    800023ce:	0000                	unimp
    800023d0:	0000020f          	0x20f
    800023d4:	0121                	addi	sp,sp,8
    800023d6:	0000                	unimp
    800023d8:	031c                	addi	a5,sp,384
    800023da:	0000                	unimp
    800023dc:	0321                	addi	t1,t1,8
    800023de:	0000                	unimp
    800023e0:	02d0                	addi	a2,sp,324
    800023e2:	0000                	unimp
    800023e4:	02f6                	slli	t0,t0,0x1d
    800023e6:	0000                	unimp
    800023e8:	02e9                	addi	t0,t0,26
    800023ea:	0000                	unimp
    800023ec:	005c                	addi	a5,sp,4
    800023ee:	0000                	unimp
    800023f0:	03dd                	addi	t2,t2,23
    800023f2:	0000                	unimp
    800023f4:	0000010f          	0x10f
    800023f8:	0355                	addi	t1,t1,21
    800023fa:	0000                	unimp
    800023fc:	0314                	addi	a3,sp,384
    800023fe:	0000                	unimp
    80002400:	00000213          	li	tp,0
    80002404:	00de                	slli	ra,ra,0x17
    80002406:	0000                	unimp
    80002408:	01cd                	addi	gp,gp,19
    8000240a:	0000                	unimp
    8000240c:	00f1                	addi	ra,ra,28
    8000240e:	0000                	unimp
    80002410:	0166                	slli	sp,sp,0x19
    80002412:	0000                	unimp
    80002414:	014c                	addi	a1,sp,132
    80002416:	0000                	unimp
    80002418:	02ac                	addi	a1,sp,328
    8000241a:	0000                	unimp
    8000241c:	02e4                	addi	s1,sp,332
    8000241e:	0000                	unimp
    80002420:	01be                	slli	gp,gp,0xf
    80002422:	0000                	unimp
    80002424:	00000137          	lui	sp,0x0
    80002428:	000002e7          	jalr	t0,zero
    8000242c:	022d                	addi	tp,tp,11
    8000242e:	0000                	unimp
    80002430:	01df 0000 022d      	0x22d000001df
    80002436:	0000                	unimp
    80002438:	039d                	addi	t2,t2,7
    8000243a:	0000                	unimp
    8000243c:	031c                	addi	a5,sp,384
    8000243e:	0000                	unimp
    80002440:	0165                	addi	sp,sp,25
    80002442:	0000                	unimp
    80002444:	0000037b          	0x37b
    80002448:	029a                	slli	t0,t0,0x6
    8000244a:	0000                	unimp
    8000244c:	0202                	slli	tp,tp,0x0
    8000244e:	0000                	unimp
    80002450:	022d                	addi	tp,tp,11
    80002452:	0000                	unimp
    80002454:	0366                	slli	t1,t1,0x19
    80002456:	0000                	unimp
    80002458:	0355                	addi	t1,t1,21
    8000245a:	0000                	unimp
    8000245c:	01b8                	addi	a4,sp,200
    8000245e:	0000                	unimp
    80002460:	003d                	c.addi	zero,15
    80002462:	0000                	unimp
    80002464:	02a6                	slli	t0,t0,0x9
    80002466:	0000                	unimp
    80002468:	018c                	addi	a1,sp,192
    8000246a:	0000                	unimp
    8000246c:	0009                	c.addi	zero,2
    8000246e:	0000                	unimp
    80002470:	0011                	c.addi	zero,4
    80002472:	0000                	unimp
    80002474:	00aa                	slli	ra,ra,0xa
    80002476:	0000                	unimp
    80002478:	00000123          	sb	zero,2(zero) # 2 <_tdata_begin+0x2>
    8000247c:	017c                	addi	a5,sp,140
    8000247e:	0000                	unimp
    80002480:	0218                	addi	a4,sp,256
    80002482:	0000                	unimp
    80002484:	00b9                	addi	ra,ra,14
    80002486:	0000                	unimp
    80002488:	0395                	addi	t2,t2,5
    8000248a:	0000                	unimp
    8000248c:	0000021b          	sext.w	tp,zero
    80002490:	000003d7          	0x3d7
    80002494:	00000377          	0x377
    80002498:	0036                	0x36
    8000249a:	0000                	unimp
    8000249c:	0264                	addi	s1,sp,268
    8000249e:	0000                	unimp
    800024a0:	000003b7          	lui	t2,0x0
    800024a4:	01df 0000 0097      	0x97000001df
    800024aa:	0000                	unimp
    800024ac:	00000007          	0x7
    800024b0:	0281                	addi	t0,t0,0
    800024b2:	0000                	unimp
    800024b4:	0000014f          	fnmadd.s	ft2,ft0,ft0,ft0,rne
    800024b8:	02da                	slli	t0,t0,0x16
    800024ba:	0000                	unimp
    800024bc:	005f 0000 02d8      	0x2d80000005f
    800024c2:	0000                	unimp
    800024c4:	0118                	addi	a4,sp,128
    800024c6:	0000                	unimp
    800024c8:	0000018b          	0x18b
    800024cc:	02b0                	addi	a2,sp,328
    800024ce:	0000                	unimp
    800024d0:	0000038f          	0x38f
    800024d4:	01dc                	addi	a5,sp,196
    800024d6:	0000                	unimp
    800024d8:	0000032f          	0x32f
    800024dc:	02d9                	addi	t0,t0,22
    800024de:	0000                	unimp
    800024e0:	0109                	addi	sp,sp,2
    800024e2:	0000                	unimp
    800024e4:	007f                	0x7f
    800024e6:	0000                	unimp
    800024e8:	00ec                	addi	a1,sp,76
    800024ea:	0000                	unimp
    800024ec:	00d6                	slli	ra,ra,0x15
    800024ee:	0000                	unimp
    800024f0:	00b4                	addi	a3,sp,72
    800024f2:	0000                	unimp
    800024f4:	0006                	0x6
    800024f6:	0000                	unimp
    800024f8:	000001f7          	0x1f7
    800024fc:	0254                	addi	a3,sp,260
    800024fe:	0000                	unimp
    80002500:	00ad                	addi	ra,ra,11
    80002502:	0000                	unimp
    80002504:	00000283          	lb	t0,0(zero) # 0 <_tdata_begin>
    80002508:	015a                	slli	sp,sp,0x16
    8000250a:	0000                	unimp
    8000250c:	00000257          	0x257
    80002510:	0044                	addi	s1,sp,4
    80002512:	0000                	unimp
    80002514:	0351                	addi	t1,t1,20
    80002516:	0000                	unimp
    80002518:	0292                	slli	t0,t0,0x4
    8000251a:	0000                	unimp
    8000251c:	0000026b          	0x26b
    80002520:	0079                	c.addi	zero,30
    80002522:	0000                	unimp
    80002524:	00000083          	lb	ra,0(zero) # 0 <_tdata_begin>
    80002528:	033c                	addi	a5,sp,392
    8000252a:	0000                	unimp
    8000252c:	0000029b          	sext.w	t0,zero
    80002530:	01b1                	addi	gp,gp,12
    80002532:	0000                	unimp
    80002534:	000001e7          	jalr	gp,zero
    80002538:	02f1                	addi	t0,t0,28
    8000253a:	0000                	unimp
    8000253c:	007d                	c.addi	zero,31
    8000253e:	0000                	unimp
    80002540:	0272                	slli	tp,tp,0x1c
    80002542:	0000                	unimp
    80002544:	000e                	0xe
    80002546:	0000                	unimp
    80002548:	000a                	0xa
    8000254a:	0000                	unimp
    8000254c:	00000193          	li	gp,0
    80002550:	006a                	0x6a
    80002552:	0000                	unimp
    80002554:	000002bf 00000332 	0x332000002bf
    8000255c:	03c4                	addi	s1,sp,452
    8000255e:	0000                	unimp
    80002560:	0196                	slli	gp,gp,0x5
    80002562:	0000                	unimp
    80002564:	036a                	slli	t1,t1,0x1a
    80002566:	0000                	unimp
    80002568:	0358                	addi	a4,sp,388
    8000256a:	0000                	unimp
    8000256c:	0056                	0x56
    8000256e:	0000                	unimp
    80002570:	003c                	addi	a5,sp,8
    80002572:	0000                	unimp
    80002574:	0294                	addi	a3,sp,320
    80002576:	0000                	unimp
    80002578:	0000029b          	sext.w	t0,zero
    8000257c:	0099                	addi	ra,ra,6
    8000257e:	0000                	unimp
    80002580:	0079                	c.addi	zero,30
    80002582:	0000                	unimp
    80002584:	0062                	0x62
    80002586:	0000                	unimp
    80002588:	019c                	addi	a5,sp,192
    8000258a:	0000                	unimp
    8000258c:	00ec                	addi	a1,sp,76
    8000258e:	0000                	unimp
    80002590:	000c                	0xc
    80002592:	0000                	unimp
    80002594:	000001a7          	0x1a7
    80002598:	03c5                	addi	t2,t2,17
    8000259a:	0000                	unimp
    8000259c:	00d8                	addi	a4,sp,68
    8000259e:	0000                	unimp
    800025a0:	026d                	addi	tp,tp,27
    800025a2:	0000                	unimp
    800025a4:	0169                	addi	sp,sp,26
    800025a6:	0000                	unimp
    800025a8:	0399                	addi	t2,t2,6
    800025aa:	0000                	unimp
    800025ac:	000002cb          	fnmsub.s	ft5,ft0,ft0,ft0,rne
    800025b0:	00000287          	0x287
    800025b4:	0000012b          	0x12b
    800025b8:	0376                	slli	t1,t1,0x1d
    800025ba:	0000                	unimp
    800025bc:	02aa                	slli	t0,t0,0xa
    800025be:	0000                	unimp
    800025c0:	0024                	addi	s1,sp,8
    800025c2:	0000                	unimp
    800025c4:	01ed                	addi	gp,gp,27
    800025c6:	0000                	unimp
    800025c8:	00000227          	0x227
    800025cc:	0219                	addi	tp,tp,6
    800025ce:	0000                	unimp
    800025d0:	03c9                	addi	t2,t2,18
    800025d2:	0000                	unimp
    800025d4:	00000283          	lb	t0,0(zero) # 0 <_tdata_begin>
    800025d8:	01b2                	slli	gp,gp,0xc
    800025da:	0000                	unimp
    800025dc:	019f 0000 012f      	0x12f0000019f
    800025e2:	0000                	unimp
    800025e4:	01b6                	slli	gp,gp,0xd
    800025e6:	0000                	unimp
    800025e8:	035c                	addi	a5,sp,388
    800025ea:	0000                	unimp
    800025ec:	000000cb          	fnmsub.s	ft1,ft0,ft0,ft0,rne
    800025f0:	01de                	slli	gp,gp,0x17
    800025f2:	0000                	unimp
    800025f4:	03dc                	addi	a5,sp,452
    800025f6:	0000                	unimp
    800025f8:	000002a3          	sb	zero,5(zero) # 5 <_tdata_begin+0x5>
    800025fc:	000002cf          	fnmadd.s	ft5,ft0,ft0,ft0,rne
    80002600:	03de                	slli	t2,t2,0x17
    80002602:	0000                	unimp
    80002604:	0152                	slli	sp,sp,0x14
    80002606:	0000                	unimp
    80002608:	01c2                	slli	gp,gp,0x10
    8000260a:	0000                	unimp
    8000260c:	0279                	addi	tp,tp,30
    8000260e:	0000                	unimp
    80002610:	0000009b          	sext.w	ra,zero
    80002614:	0286                	slli	t0,t0,0x1
    80002616:	0000                	unimp
    80002618:	01c4                	addi	s1,sp,196
    8000261a:	0000                	unimp
    8000261c:	000001ab          	0x1ab
    80002620:	01fd                	addi	gp,gp,31
    80002622:	0000                	unimp
    80002624:	03dc                	addi	a5,sp,452
    80002626:	0000                	unimp
    80002628:	01aa                	slli	gp,gp,0xa
    8000262a:	0000                	unimp
    8000262c:	000c                	0xc
    8000262e:	0000                	unimp
    80002630:	000001e3          	beqz	zero,80002e32 <_end+0x1f2>
    80002634:	008e                	slli	ra,ra,0x3
    80002636:	0000                	unimp
    80002638:	00000153          	fadd.s	ft2,ft0,ft0,rne
    8000263c:	0186                	slli	gp,gp,0x1
    8000263e:	0000                	unimp
    80002640:	0032                	0x32
    80002642:	0000                	unimp
    80002644:	000000ab          	0xab
    80002648:	0259                	addi	tp,tp,22
    8000264a:	0000                	unimp
    8000264c:	0069                	c.addi	zero,26
    8000264e:	0000                	unimp
    80002650:	03c8                	addi	a0,sp,452
    80002652:	0000                	unimp
    80002654:	0079                	c.addi	zero,30
    80002656:	0000                	unimp
    80002658:	0000036f          	jal	t1,80002658 <input2_data+0x3d0>
    8000265c:	0051                	c.addi	zero,20
    8000265e:	0000                	unimp
    80002660:	0366                	slli	t1,t1,0x19
    80002662:	0000                	unimp
    80002664:	0258                	addi	a4,sp,260
    80002666:	0000                	unimp
    80002668:	0000025b          	0x25b
    8000266c:	00000367          	jalr	t1,zero
    80002670:	00000377          	0x377
    80002674:	0262                	slli	tp,tp,0x18
    80002676:	0000                	unimp
    80002678:	0194                	addi	a3,sp,192
    8000267a:	0000                	unimp
    8000267c:	00ea                	slli	ra,ra,0x1a
    8000267e:	0000                	unimp
    80002680:	02e9                	addi	t0,t0,26
    80002682:	0000                	unimp
    80002684:	020e                	slli	tp,tp,0x3
    80002686:	0000                	unimp
    80002688:	00000113          	li	sp,0
    8000268c:	01b9                	addi	gp,gp,14
    8000268e:	0000                	unimp
    80002690:	00e2                	slli	ra,ra,0x18
    80002692:	0000                	unimp
    80002694:	02f0                	addi	a2,sp,332
    80002696:	0000                	unimp
    80002698:	000003af          	0x3af
    8000269c:	02d6                	slli	t0,t0,0x15
    8000269e:	0000                	unimp
    800026a0:	02c5                	addi	t0,t0,17
    800026a2:	0000                	unimp
    800026a4:	00c9                	addi	ra,ra,18
    800026a6:	0000                	unimp
    800026a8:	0036                	0x36
    800026aa:	0000                	unimp
    800026ac:	02f6                	slli	t0,t0,0x1d
    800026ae:	0000                	unimp
    800026b0:	0035                	c.addi	zero,13
    800026b2:	0000                	unimp
    800026b4:	018d                	addi	gp,gp,3
    800026b6:	0000                	unimp
    800026b8:	0029                	c.addi	zero,10
    800026ba:	0000                	unimp
    800026bc:	008d                	addi	ra,ra,3
    800026be:	0000                	unimp
    800026c0:	01a0                	addi	s0,sp,200
    800026c2:	0000                	unimp
    800026c4:	000002eb          	0x2eb
    800026c8:	000000db          	0xdb
    800026cc:	01de                	slli	gp,gp,0x17
    800026ce:	0000                	unimp
    800026d0:	0302                	slli	t1,t1,0x0
    800026d2:	0000                	unimp
    800026d4:	00b4                	addi	a3,sp,72
    800026d6:	0000                	unimp
    800026d8:	01e2                	slli	gp,gp,0x18
    800026da:	0000                	unimp
    800026dc:	000002b3          	add	t0,zero,zero
    800026e0:	02d5                	addi	t0,t0,21
    800026e2:	0000                	unimp
    800026e4:	00ad                	addi	ra,ra,11
    800026e6:	0000                	unimp
    800026e8:	00ba                	slli	ra,ra,0xe
    800026ea:	0000                	unimp
    800026ec:	0392                	slli	t2,t2,0x4
    800026ee:	0000                	unimp
    800026f0:	0001                	nop
    800026f2:	0000                	unimp
    800026f4:	000003c3          	fmadd.s	ft7,ft0,ft0,ft0,rne
    800026f8:	000000f7          	0xf7
    800026fc:	01d0                	addi	a2,sp,196
    800026fe:	0000                	unimp
    80002700:	016a                	slli	sp,sp,0x1a
    80002702:	0000                	unimp
    80002704:	0209                	addi	tp,tp,2
    80002706:	0000                	unimp
    80002708:	00e9                	addi	ra,ra,26
    8000270a:	0000                	unimp
    8000270c:	0078                	addi	a4,sp,12
    8000270e:	0000                	unimp
    80002710:	0028                	addi	a0,sp,8
    80002712:	0000                	unimp
    80002714:	0000030b          	0x30b
    80002718:	000000c3          	fmadd.s	ft1,ft0,ft0,ft0,rne
    8000271c:	00a1                	addi	ra,ra,8
    8000271e:	0000                	unimp
    80002720:	000002e7          	jalr	t0,zero
    80002724:	000001b7          	lui	gp,0x0
    80002728:	00000163          	beqz	zero,8000272a <input2_data+0x4a2>
    8000272c:	00000193          	li	gp,0
    80002730:	008d                	addi	ra,ra,3
    80002732:	0000                	unimp
    80002734:	0279                	addi	tp,tp,30
    80002736:	0000                	unimp

0000000080002738 <verify_data>:
    80002738:	000001ef          	jal	gp,80002738 <verify_data>
    8000273c:	0490                	addi	a2,sp,576
    8000273e:	0000                	unimp
    80002740:	0235                	addi	tp,tp,13
    80002742:	0000                	unimp
    80002744:	0498                	addi	a4,sp,576
    80002746:	0000                	unimp
    80002748:	045a                	slli	s0,s0,0x16
    8000274a:	0000                	unimp
    8000274c:	039a                	slli	t2,t2,0x6
    8000274e:	0000                	unimp
    80002750:	00c4                	addi	s1,sp,68
    80002752:	0000                	unimp
    80002754:	044e                	slli	s0,s0,0x13
    80002756:	0000                	unimp
    80002758:	0320                	addi	s0,sp,392
    8000275a:	0000                	unimp
    8000275c:	03b1                	addi	t2,t2,12
    8000275e:	0000                	unimp
    80002760:	0000033f 00000242 	0x2420000033f
    80002768:	04f6                	slli	s1,s1,0x1d
    8000276a:	0000                	unimp
    8000276c:	000005cb          	fnmsub.s	fa1,ft0,ft0,ft0,rne
    80002770:	050a                	slli	a0,a0,0x2
    80002772:	0000                	unimp
    80002774:	039a                	slli	t2,t2,0x6
    80002776:	0000                	unimp
    80002778:	03cd                	addi	t2,t2,19
    8000277a:	0000                	unimp
    8000277c:	03e1                	addi	t2,t2,24
    8000277e:	0000                	unimp
    80002780:	0362                	slli	t1,t1,0x18
    80002782:	0000                	unimp
    80002784:	03ae                	slli	t2,t2,0xb
    80002786:	0000                	unimp
    80002788:	039e                	slli	t2,t2,0x7
    8000278a:	0000                	unimp
    8000278c:	02ee                	slli	t0,t0,0x1b
    8000278e:	0000                	unimp
    80002790:	0550                	addi	a2,sp,644
    80002792:	0000                	unimp
    80002794:	0632                	slli	a2,a2,0xc
    80002796:	0000                	unimp
    80002798:	0514                	addi	a3,sp,640
    8000279a:	0000                	unimp
    8000279c:	033c                	addi	a5,sp,392
    8000279e:	0000                	unimp
    800027a0:	00000623          	sb	zero,12(zero) # c <_tdata_begin+0xc>
    800027a4:	03ac                	addi	a1,sp,456
    800027a6:	0000                	unimp
    800027a8:	02ea                	slli	t0,t0,0x1a
    800027aa:	0000                	unimp
    800027ac:	04ac                	addi	a1,sp,584
    800027ae:	0000                	unimp
    800027b0:	04a2                	slli	s1,s1,0x8
    800027b2:	0000                	unimp
    800027b4:	0436                	slli	s0,s0,0xd
    800027b6:	0000                	unimp
    800027b8:	00000123          	sb	zero,2(zero) # 2 <_tdata_begin+0x2>
    800027bc:	000003d7          	0x3d7
    800027c0:	0594                	addi	a3,sp,704
    800027c2:	0000                	unimp
    800027c4:	03d5                	addi	t2,t2,21
    800027c6:	0000                	unimp
    800027c8:	0426                	slli	s0,s0,0x9
    800027ca:	0000                	unimp
    800027cc:	0639                	addi	a2,a2,14
    800027ce:	0000                	unimp
    800027d0:	00000313          	li	t1,0
    800027d4:	028a                	slli	t0,t0,0x2
    800027d6:	0000                	unimp
    800027d8:	000004c3          	fmadd.s	fs1,ft0,ft0,ft0,rne
    800027dc:	0405                	addi	s0,s0,1
    800027de:	0000                	unimp
    800027e0:	0399                	addi	t2,t2,6
    800027e2:	0000                	unimp
    800027e4:	00000633          	add	a2,zero,zero
    800027e8:	04f6                	slli	s1,s1,0x1d
    800027ea:	0000                	unimp
    800027ec:	02da                	slli	t0,t0,0x16
    800027ee:	0000                	unimp
    800027f0:	04d9                	addi	s1,s1,22
    800027f2:	0000                	unimp
    800027f4:	00000473          	0x473
    800027f8:	05f5                	addi	a1,a1,29
    800027fa:	0000                	unimp
    800027fc:	055d                	addi	a0,a0,23
    800027fe:	0000                	unimp
    80002800:	02e2                	slli	t0,t0,0x18
    80002802:	0000                	unimp
    80002804:	0649                	addi	a2,a2,18
    80002806:	0000                	unimp
    80002808:	0609                	addi	a2,a2,2
    8000280a:	0000                	unimp
    8000280c:	00000543          	fmadd.s	fa0,ft0,ft0,ft0,rne
    80002810:	000005b7          	lui	a1,0x0
    80002814:	02e0                	addi	s0,sp,332
    80002816:	0000                	unimp
    80002818:	0185                	addi	gp,gp,1
    8000281a:	0000                	unimp
    8000281c:	0455                	addi	s0,s0,21
    8000281e:	0000                	unimp
    80002820:	05d0                	addi	a2,sp,708
    80002822:	0000                	unimp
    80002824:	0390                	addi	a2,sp,448
    80002826:	0000                	unimp
    80002828:	03e0                	addi	s0,sp,460
    8000282a:	0000                	unimp
    8000282c:	0542                	slli	a0,a0,0x10
    8000282e:	0000                	unimp
    80002830:	018a                	slli	gp,gp,0x2
    80002832:	0000                	unimp
    80002834:	0654                	addi	a3,sp,772
    80002836:	0000                	unimp
    80002838:	0524                	addi	s1,sp,648
    8000283a:	0000                	unimp
    8000283c:	000002a7          	0x2a7
    80002840:	045a                	slli	s0,s0,0x16
    80002842:	0000                	unimp
    80002844:	0000068f          	0x68f
    80002848:	02fd                	addi	t0,t0,31
    8000284a:	0000                	unimp
    8000284c:	02df 0000 0242      	0x242000002df
    80002852:	0000                	unimp
    80002854:	00000553          	fadd.s	fa0,ft0,ft0,rne
    80002858:	0448                	addi	a0,sp,516
    8000285a:	0000                	unimp
    8000285c:	027e                	slli	tp,tp,0x1f
    8000285e:	0000                	unimp
    80002860:	02e4                	addi	s1,sp,332
    80002862:	0000                	unimp
    80002864:	03ee                	slli	t2,t2,0x1b
    80002866:	0000                	unimp
    80002868:	0510                	addi	a2,sp,640
    8000286a:	0000                	unimp
    8000286c:	0000018b          	0x18b
    80002870:	0000023f 000005c5 	0x5c50000023f
    80002878:	03a6                	slli	t2,t2,0x9
    8000287a:	0000                	unimp
    8000287c:	0120                	addi	s0,sp,136
    8000287e:	0000                	unimp
    80002880:	0476                	slli	s0,s0,0x1d
    80002882:	0000                	unimp
    80002884:	037f                	0x37f
    80002886:	0000                	unimp
    80002888:	04a1                	addi	s1,s1,8
    8000288a:	0000                	unimp
    8000288c:	0480                	addi	s0,sp,576
    8000288e:	0000                	unimp
    80002890:	00000497          	auipc	s1,0x0
    80002894:	040c                	addi	a1,sp,512
    80002896:	0000                	unimp
    80002898:	0458                	addi	a4,sp,516
    8000289a:	0000                	unimp
    8000289c:	01c2                	slli	gp,gp,0x10
    8000289e:	0000                	unimp
    800028a0:	0625                	addi	a2,a2,9
    800028a2:	0000                	unimp
    800028a4:	014d                	addi	sp,sp,19
    800028a6:	0000                	unimp
    800028a8:	072e                	slli	a4,a4,0xb
    800028aa:	0000                	unimp
    800028ac:	000004a7          	0x4a7
    800028b0:	036d                	addi	t1,t1,27
    800028b2:	0000                	unimp
    800028b4:	000002e3          	beqz	zero,800030b8 <_end+0x478>
    800028b8:	03fc                	addi	a5,sp,460
    800028ba:	0000                	unimp
    800028bc:	047d                	addi	s0,s0,31
    800028be:	0000                	unimp
    800028c0:	046d                	addi	s0,s0,27
    800028c2:	0000                	unimp
    800028c4:	0000024b          	fnmsub.s	ft4,ft0,ft0,ft0,rne
    800028c8:	05b6                	slli	a1,a1,0xd
    800028ca:	0000                	unimp
    800028cc:	053a                	slli	a0,a0,0xe
    800028ce:	0000                	unimp
    800028d0:	024d                	addi	tp,tp,19
    800028d2:	0000                	unimp
    800028d4:	0158                	addi	a4,sp,132
    800028d6:	0000                	unimp
    800028d8:	0364                	addi	s1,sp,396
    800028da:	0000                	unimp
    800028dc:	05da                	slli	a1,a1,0x16
    800028de:	0000                	unimp
    800028e0:	0584                	addi	s1,sp,704
    800028e2:	0000                	unimp
    800028e4:	054c                	addi	a1,sp,644
    800028e6:	0000                	unimp
    800028e8:	05c6                	slli	a1,a1,0x11
    800028ea:	0000                	unimp
    800028ec:	000004cb          	fnmsub.s	fs1,ft0,ft0,ft0,rne
    800028f0:	03ed                	addi	t2,t2,27
    800028f2:	0000                	unimp
    800028f4:	00000733          	add	a4,zero,zero
    800028f8:	03b9                	addi	t2,t2,14
    800028fa:	0000                	unimp
    800028fc:	0215                	addi	tp,tp,5
    800028fe:	0000                	unimp
    80002900:	025e                	slli	tp,tp,0x17
    80002902:	0000                	unimp
    80002904:	03bc                	addi	a5,sp,456
    80002906:	0000                	unimp
    80002908:	03b4                	addi	a3,sp,456
    8000290a:	0000                	unimp
    8000290c:	0371                	addi	t1,t1,28
    8000290e:	0000                	unimp
    80002910:	0288                	addi	a0,sp,320
    80002912:	0000                	unimp
    80002914:	050c                	addi	a1,sp,640
    80002916:	0000                	unimp
    80002918:	030a                	slli	t1,t1,0x2
    8000291a:	0000                	unimp
    8000291c:	0121                	addi	sp,sp,8
    8000291e:	0000                	unimp
    80002920:	0339                	addi	t1,t1,14
    80002922:	0000                	unimp
    80002924:	0475                	addi	s0,s0,29
    80002926:	0000                	unimp
    80002928:	0456                	slli	s0,s0,0x15
    8000292a:	0000                	unimp
    8000292c:	02d4                	addi	a3,sp,324
    8000292e:	0000                	unimp
    80002930:	03da                	slli	t2,t2,0x16
    80002932:	0000                	unimp
    80002934:	02b9                	addi	t0,t0,14
    80002936:	0000                	unimp
    80002938:	075a                	slli	a4,a4,0x16
    8000293a:	0000                	unimp
    8000293c:	0376                	slli	t1,t1,0x1d
    8000293e:	0000                	unimp
    80002940:	06ff                	0x6ff
    80002942:	0000                	unimp
    80002944:	06e9                	addi	a3,a3,26
    80002946:	0000                	unimp
    80002948:	0000024f          	fnmadd.s	ft4,ft0,ft0,ft0,rne
    8000294c:	0616                	slli	a2,a2,0x5
    8000294e:	0000                	unimp
    80002950:	0674                	addi	a3,sp,780
    80002952:	0000                	unimp
    80002954:	00000343          	fmadd.s	ft6,ft0,ft0,ft0,rne
    80002958:	02ce                	slli	t0,t0,0x13
    8000295a:	0000                	unimp
    8000295c:	0382                	slli	t2,t2,0x0
    8000295e:	0000                	unimp
    80002960:	00000297          	auipc	t0,0x0
    80002964:	00000387          	0x387
    80002968:	00000573          	0x573
    8000296c:	0206                	slli	tp,tp,0x1
    8000296e:	0000                	unimp
    80002970:	048a                	slli	s1,s1,0x2
    80002972:	0000                	unimp
    80002974:	01b6                	slli	gp,gp,0xd
    80002976:	0000                	unimp
    80002978:	018d                	addi	gp,gp,3
    8000297a:	0000                	unimp
    8000297c:	0304                	addi	s1,sp,384
    8000297e:	0000                	unimp
    80002980:	0486                	slli	s1,s1,0x1
    80002982:	0000                	unimp
    80002984:	020d                	addi	tp,tp,3
    80002986:	0000                	unimp
    80002988:	04e2                	slli	s1,s1,0x18
    8000298a:	0000                	unimp
    8000298c:	05f1                	addi	a1,a1,28
    8000298e:	0000                	unimp
    80002990:	046e                	slli	s0,s0,0x1b
    80002992:	0000                	unimp
    80002994:	0265                	addi	tp,tp,25
    80002996:	0000                	unimp
    80002998:	028a                	slli	t0,t0,0x2
    8000299a:	0000                	unimp
    8000299c:	00000247          	fmsub.s	ft4,ft0,ft0,ft0,rne
    800029a0:	02d8                	addi	a4,sp,324
    800029a2:	0000                	unimp
    800029a4:	020c                	addi	a1,sp,256
    800029a6:	0000                	unimp
    800029a8:	0000056f          	jal	a0,800029a8 <verify_data+0x270>
    800029ac:	04fe                	slli	s1,s1,0x1f
    800029ae:	0000                	unimp
    800029b0:	01c9                	addi	gp,gp,18
    800029b2:	0000                	unimp
    800029b4:	0000038b          	0x38b
    800029b8:	034d                	addi	t1,t1,19
    800029ba:	0000                	unimp
    800029bc:	0379                	addi	t1,t1,30
    800029be:	0000                	unimp
    800029c0:	03c5                	addi	t2,t2,17
    800029c2:	0000                	unimp
    800029c4:	0428                	addi	a0,sp,520
    800029c6:	0000                	unimp
    800029c8:	056d                	addi	a0,a0,27
    800029ca:	0000                	unimp
    800029cc:	0000051b          	sext.w	a0,zero
    800029d0:	0174                	addi	a3,sp,140
    800029d2:	0000                	unimp
    800029d4:	0395                	addi	t2,t2,5
    800029d6:	0000                	unimp
    800029d8:	00000567          	jalr	a0,zero
    800029dc:	03c9                	addi	t2,t2,18
    800029de:	0000                	unimp
    800029e0:	03c1                	addi	t2,t2,16
    800029e2:	0000                	unimp
    800029e4:	00000407          	0x407
    800029e8:	00000433          	add	s0,zero,zero
    800029ec:	0430                	addi	a2,sp,520
    800029ee:	0000                	unimp
    800029f0:	0391                	addi	t2,t2,4
    800029f2:	0000                	unimp
    800029f4:	0346                	slli	t1,t1,0x11
    800029f6:	0000                	unimp
    800029f8:	013a                	slli	sp,sp,0xe
    800029fa:	0000                	unimp
    800029fc:	000004a7          	0x4a7
    80002a00:	00000347          	fmsub.s	ft6,ft0,ft0,ft0,rne
    80002a04:	067e                	slli	a2,a2,0x1f
    80002a06:	0000                	unimp
    80002a08:	04a0                	addi	s0,sp,584
    80002a0a:	0000                	unimp
    80002a0c:	0696                	slli	a3,a3,0x5
    80002a0e:	0000                	unimp
    80002a10:	02bc                	addi	a5,sp,328
    80002a12:	0000                	unimp
    80002a14:	0739                	addi	a4,a4,14
    80002a16:	0000                	unimp
    80002a18:	05e5                	addi	a1,a1,25
    80002a1a:	0000                	unimp
    80002a1c:	0342                	slli	t1,t1,0x10
    80002a1e:	0000                	unimp
    80002a20:	00000097          	auipc	ra,0x0
    80002a24:	040e                	slli	s0,s0,0x3
    80002a26:	0000                	unimp
    80002a28:	0304                	addi	s1,sp,384
    80002a2a:	0000                	unimp
    80002a2c:	00ff                	0xff
    80002a2e:	0000                	unimp
    80002a30:	01f6                	slli	gp,gp,0x1d
    80002a32:	0000                	unimp
    80002a34:	02ed                	addi	t0,t0,27
    80002a36:	0000                	unimp
    80002a38:	04d5                	addi	s1,s1,21
    80002a3a:	0000                	unimp
    80002a3c:	0434                	addi	a3,sp,520
    80002a3e:	0000                	unimp
    80002a40:	0170                	addi	a2,sp,140
    80002a42:	0000                	unimp
    80002a44:	0000023b          	addw	tp,zero,zero
    80002a48:	000003fb          	0x3fb
    80002a4c:	0164                	addi	s1,sp,140
    80002a4e:	0000                	unimp
    80002a50:	0628                	addi	a0,sp,776
    80002a52:	0000                	unimp
    80002a54:	02c0                	addi	s0,sp,324
    80002a56:	0000                	unimp
    80002a58:	05ae                	slli	a1,a1,0xb
    80002a5a:	0000                	unimp
    80002a5c:	05c0                	addi	s0,sp,708
    80002a5e:	0000                	unimp
    80002a60:	0490                	addi	a2,sp,576
    80002a62:	0000                	unimp
    80002a64:	0470                	addi	a2,sp,524
    80002a66:	0000                	unimp
    80002a68:	05c6                	slli	a1,a1,0x11
    80002a6a:	0000                	unimp
    80002a6c:	000002b7          	lui	t0,0x0
    80002a70:	00d1                	addi	ra,ra,20
    80002a72:	0000                	unimp
    80002a74:	022c                	addi	a1,sp,264
    80002a76:	0000                	unimp
    80002a78:	02a0                	addi	s0,sp,328
    80002a7a:	0000                	unimp
    80002a7c:	029e                	slli	t0,t0,0x7
    80002a7e:	0000                	unimp
    80002a80:	000006bf 000003f7 	0x3f7000006bf
    80002a88:	0569                	addi	a0,a0,26
    80002a8a:	0000                	unimp
    80002a8c:	01c6                	slli	gp,gp,0x11
    80002a8e:	0000                	unimp
    80002a90:	01b0                	addi	a2,sp,200
    80002a92:	0000                	unimp
    80002a94:	0224                	addi	s1,sp,264
    80002a96:	0000                	unimp
    80002a98:	000006ab          	0x6ab
    80002a9c:	0280                	addi	s0,sp,320
    80002a9e:	0000                	unimp
    80002aa0:	02dd                	addi	t0,t0,23
    80002aa2:	0000                	unimp
    80002aa4:	04e9                	addi	s1,s1,26
    80002aa6:	0000                	unimp
    80002aa8:	043c                	addi	a5,sp,520
    80002aaa:	0000                	unimp
    80002aac:	00000543          	fmadd.s	fa0,ft0,ft0,ft0,rne
    80002ab0:	056d                	addi	a0,a0,27
    80002ab2:	0000                	unimp
    80002ab4:	00000377          	0x377
    80002ab8:	000004b3          	add	s1,zero,zero
    80002abc:	04ad                	addi	s1,s1,11
    80002abe:	0000                	unimp
    80002ac0:	0146                	slli	sp,sp,0x11
    80002ac2:	0000                	unimp
    80002ac4:	0299                	addi	t0,t0,6
    80002ac6:	0000                	unimp
    80002ac8:	0000049b          	sext.w	s1,zero
    80002acc:	03a0                	addi	s0,sp,456
    80002ace:	0000                	unimp
    80002ad0:	0506                	slli	a0,a0,0x1
    80002ad2:	0000                	unimp
    80002ad4:	00000407          	0x407
    80002ad8:	0000049b          	sext.w	s1,zero
    80002adc:	005d                	c.addi	zero,23
    80002ade:	0000                	unimp
    80002ae0:	02ad                	addi	t0,t0,11
    80002ae2:	0000                	unimp
    80002ae4:	000003e3          	beqz	zero,800032ea <_end+0x6aa>
    80002ae8:	01ec                	addi	a1,sp,204
    80002aea:	0000                	unimp
    80002aec:	047e                	slli	s0,s0,0x1f
    80002aee:	0000                	unimp
    80002af0:	00000197          	auipc	gp,0x0
    80002af4:	045a                	slli	s0,s0,0x16
    80002af6:	0000                	unimp
    80002af8:	000005f3          	0x5f3
    80002afc:	01b1                	addi	gp,gp,12
    80002afe:	0000                	unimp
    80002b00:	05b8                	addi	a4,sp,712
    80002b02:	0000                	unimp
    80002b04:	00000233          	add	tp,zero,zero
    80002b08:	00000573          	0x573
    80002b0c:	02d2                	slli	t0,t0,0x14
    80002b0e:	0000                	unimp
    80002b10:	047a                	slli	s0,s0,0x1e
    80002b12:	0000                	unimp
    80002b14:	056a                	slli	a0,a0,0x1a
    80002b16:	0000                	unimp
    80002b18:	02cc                	addi	a1,sp,324
    80002b1a:	0000                	unimp
    80002b1c:	06b1                	addi	a3,a3,12
    80002b1e:	0000                	unimp
    80002b20:	0702                	slli	a4,a4,0x0
    80002b22:	0000                	unimp
    80002b24:	0375                	addi	t1,t1,29
    80002b26:	0000                	unimp
    80002b28:	0281                	addi	t0,t0,0
    80002b2a:	0000                	unimp
    80002b2c:	010a                	slli	sp,sp,0x2
    80002b2e:	0000                	unimp
    80002b30:	05f9                	addi	a1,a1,30
    80002b32:	0000                	unimp
    80002b34:	00000443          	fmadd.s	fs0,ft0,ft0,ft0,rne
    80002b38:	0278                	addi	a4,sp,268
    80002b3a:	0000                	unimp
    80002b3c:	04dc                	addi	a5,sp,580
    80002b3e:	0000                	unimp
    80002b40:	0415                	addi	s0,s0,5
    80002b42:	0000                	unimp
    80002b44:	05df 0000 04c7      	0x4c7000005df
    80002b4a:	0000                	unimp
    80002b4c:	0000032b          	0x32b
    80002b50:	0000048f          	0x48f
    80002b54:	0000028f          	0x28f
    80002b58:	02fc                	addi	a5,sp,332
    80002b5a:	0000                	unimp
    80002b5c:	04c1                	addi	s1,s1,16
    80002b5e:	0000                	unimp
    80002b60:	005e                	0x5e
    80002b62:	0000                	unimp
    80002b64:	028a                	slli	t0,t0,0x2
    80002b66:	0000                	unimp
    80002b68:	01a2                	slli	gp,gp,0x8
    80002b6a:	0000                	unimp
    80002b6c:	0289                	addi	t0,t0,2
    80002b6e:	0000                	unimp
    80002b70:	045c                	addi	a5,sp,516
    80002b72:	0000                	unimp
    80002b74:	00000647          	fmsub.s	fa2,ft0,ft0,ft0,rne
    80002b78:	000002bb          	addw	t0,zero,zero
    80002b7c:	000004c3          	fmadd.s	fs1,ft0,ft0,ft0,rne
    80002b80:	04f5                	addi	s1,s1,29
    80002b82:	0000                	unimp
    80002b84:	0379                	addi	t1,t1,30
    80002b86:	0000                	unimp
    80002b88:	00000213          	li	tp,0
    80002b8c:	0426                	slli	s0,s0,0x9
    80002b8e:	0000                	unimp
    80002b90:	063e                	slli	a2,a2,0xf
    80002b92:	0000                	unimp
    80002b94:	045e                	slli	s0,s0,0x17
    80002b96:	0000                	unimp
    80002b98:	049a                	slli	s1,s1,0x6
    80002b9a:	0000                	unimp
    80002b9c:	05a0                	addi	s0,sp,712
    80002b9e:	0000                	unimp
    80002ba0:	02d2                	slli	t0,t0,0x14
    80002ba2:	0000                	unimp
    80002ba4:	0576                	slli	a0,a0,0x1d
    80002ba6:	0000                	unimp
    80002ba8:	01df 0000 03c1      	0x3c1000001df
    80002bae:	0000                	unimp
    80002bb0:	00000423          	sb	zero,8(zero) # 8 <_tdata_begin+0x8>
    80002bb4:	00000227          	0x227
    80002bb8:	0245                	addi	tp,tp,17
    80002bba:	0000                	unimp
    80002bbc:	0172                	slli	sp,sp,0x1c
    80002bbe:	0000                	unimp
    80002bc0:	0186                	slli	gp,gp,0x1
    80002bc2:	0000                	unimp
    80002bc4:	0405                	addi	s0,s0,1
    80002bc6:	0000                	unimp
    80002bc8:	0300                	addi	s0,sp,384
    80002bca:	0000                	unimp
    80002bcc:	03b1                	addi	t2,t2,12
    80002bce:	0000                	unimp
    80002bd0:	05d4                	addi	a3,sp,708
    80002bd2:	0000                	unimp
    80002bd4:	03ad                	addi	t2,t2,11
    80002bd6:	0000                	unimp
    80002bd8:	049a                	slli	s1,s1,0x6
    80002bda:	0000                	unimp
    80002bdc:	04cd                	addi	s1,s1,19
    80002bde:	0000                	unimp
    80002be0:	00000137          	lui	sp,0x0
    80002be4:	0319                	addi	t1,t1,6
    80002be6:	0000                	unimp
